
c1m2.out:     file format elf32-littlearm


Disassembly of section .intvecs:

00000000 <interruptVectors>:
   0:	20004000 	andcs	r4, r0, r0
   4:	0000153d 	andeq	r1, r0, sp, lsr r5
   8:	000015a9 	andeq	r1, r0, r9, lsr #11
   c:	000015b9 			@ <UNDEFINED> instruction: 0x000015b9
  10:	000015c9 	andeq	r1, r0, r9, asr #11
  14:	000015c9 	andeq	r1, r0, r9, asr #11
  18:	000015c9 	andeq	r1, r0, r9, asr #11
	...
  2c:	000015c9 	andeq	r1, r0, r9, asr #11
  30:	000015c9 	andeq	r1, r0, r9, asr #11
  34:	00000000 	andeq	r0, r0, r0
  38:	000015c9 	andeq	r1, r0, r9, asr #11
  3c:	000015c9 	andeq	r1, r0, r9, asr #11
  40:	000015c9 	andeq	r1, r0, r9, asr #11
  44:	000015c9 	andeq	r1, r0, r9, asr #11
  48:	000015c9 	andeq	r1, r0, r9, asr #11
  4c:	000015c9 	andeq	r1, r0, r9, asr #11
  50:	000015c9 	andeq	r1, r0, r9, asr #11
  54:	000015c9 	andeq	r1, r0, r9, asr #11
  58:	000015c9 	andeq	r1, r0, r9, asr #11
  5c:	000015c9 	andeq	r1, r0, r9, asr #11
  60:	000015c9 	andeq	r1, r0, r9, asr #11
  64:	000015c9 	andeq	r1, r0, r9, asr #11
  68:	000015c9 	andeq	r1, r0, r9, asr #11
  6c:	000015c9 	andeq	r1, r0, r9, asr #11
  70:	000015c9 	andeq	r1, r0, r9, asr #11
  74:	000015c9 	andeq	r1, r0, r9, asr #11
  78:	000015c9 	andeq	r1, r0, r9, asr #11
  7c:	000015c9 	andeq	r1, r0, r9, asr #11
  80:	000015c9 	andeq	r1, r0, r9, asr #11
  84:	000015c9 	andeq	r1, r0, r9, asr #11
  88:	000015c9 	andeq	r1, r0, r9, asr #11
  8c:	000015c9 	andeq	r1, r0, r9, asr #11
  90:	000015c9 	andeq	r1, r0, r9, asr #11
  94:	000015c9 	andeq	r1, r0, r9, asr #11
  98:	000015c9 	andeq	r1, r0, r9, asr #11
  9c:	000015c9 	andeq	r1, r0, r9, asr #11
  a0:	000015c9 	andeq	r1, r0, r9, asr #11
  a4:	000015c9 	andeq	r1, r0, r9, asr #11
  a8:	000015c9 	andeq	r1, r0, r9, asr #11
  ac:	000015c9 	andeq	r1, r0, r9, asr #11
  b0:	000015c9 	andeq	r1, r0, r9, asr #11
  b4:	000015c9 	andeq	r1, r0, r9, asr #11
  b8:	000015c9 	andeq	r1, r0, r9, asr #11
  bc:	000015c9 	andeq	r1, r0, r9, asr #11
  c0:	000015c9 	andeq	r1, r0, r9, asr #11
  c4:	000015c9 	andeq	r1, r0, r9, asr #11
  c8:	000015c9 	andeq	r1, r0, r9, asr #11
  cc:	000015c9 	andeq	r1, r0, r9, asr #11
  d0:	000015c9 	andeq	r1, r0, r9, asr #11
  d4:	000015c9 	andeq	r1, r0, r9, asr #11
  d8:	000015c9 	andeq	r1, r0, r9, asr #11
  dc:	000015c9 	andeq	r1, r0, r9, asr #11
  e0:	000015c9 	andeq	r1, r0, r9, asr #11
	...

Disassembly of section .text:

00000140 <deregister_tm_clones>:
     140:	4803      	ldr	r0, [pc, #12]	@ (150 <deregister_tm_clones+0x10>)
     142:	4b04      	ldr	r3, [pc, #16]	@ (154 <deregister_tm_clones+0x14>)
     144:	4283      	cmp	r3, r0
     146:	d002      	beq.n	14e <deregister_tm_clones+0xe>
     148:	4b03      	ldr	r3, [pc, #12]	@ (158 <deregister_tm_clones+0x18>)
     14a:	b103      	cbz	r3, 14e <deregister_tm_clones+0xe>
     14c:	4718      	bx	r3
     14e:	4770      	bx	lr
     150:	20000548 	andcs	r0, r0, r8, asr #10
     154:	20000548 	andcs	r0, r0, r8, asr #10
     158:	00000000 	andeq	r0, r0, r0

0000015c <register_tm_clones>:
     15c:	4805      	ldr	r0, [pc, #20]	@ (174 <register_tm_clones+0x18>)
     15e:	4b06      	ldr	r3, [pc, #24]	@ (178 <register_tm_clones+0x1c>)
     160:	1a1b      	subs	r3, r3, r0
     162:	0fd9      	lsrs	r1, r3, #31
     164:	eb01 01a3 	add.w	r1, r1, r3, asr #2
     168:	1049      	asrs	r1, r1, #1
     16a:	d002      	beq.n	172 <register_tm_clones+0x16>
     16c:	4b03      	ldr	r3, [pc, #12]	@ (17c <register_tm_clones+0x20>)
     16e:	b103      	cbz	r3, 172 <register_tm_clones+0x16>
     170:	4718      	bx	r3
     172:	4770      	bx	lr
     174:	20000548 	andcs	r0, r0, r8, asr #10
     178:	20000548 	andcs	r0, r0, r8, asr #10
     17c:	00000000 	andeq	r0, r0, r0

00000180 <__do_global_dtors_aux>:
     180:	b510      	push	{r4, lr}
     182:	4c06      	ldr	r4, [pc, #24]	@ (19c <__do_global_dtors_aux+0x1c>)
     184:	7823      	ldrb	r3, [r4, #0]
     186:	b943      	cbnz	r3, 19a <__do_global_dtors_aux+0x1a>
     188:	f7ff ffda 	bl	140 <deregister_tm_clones>
     18c:	4b04      	ldr	r3, [pc, #16]	@ (1a0 <__do_global_dtors_aux+0x20>)
     18e:	b113      	cbz	r3, 196 <__do_global_dtors_aux+0x16>
     190:	4804      	ldr	r0, [pc, #16]	@ (1a4 <__do_global_dtors_aux+0x24>)
     192:	f3af 8000 	nop.w
     196:	2301      	movs	r3, #1
     198:	7023      	strb	r3, [r4, #0]
     19a:	bd10      	pop	{r4, pc}
     19c:	20000548 	andcs	r0, r0, r8, asr #10
     1a0:	00000000 	andeq	r0, r0, r0
     1a4:	00001620 	andeq	r1, r0, r0, lsr #12

000001a8 <frame_dummy>:
     1a8:	b508      	push	{r3, lr}
     1aa:	4b04      	ldr	r3, [pc, #16]	@ (1bc <frame_dummy+0x14>)
     1ac:	b11b      	cbz	r3, 1b6 <frame_dummy+0xe>
     1ae:	4904      	ldr	r1, [pc, #16]	@ (1c0 <frame_dummy+0x18>)
     1b0:	4804      	ldr	r0, [pc, #16]	@ (1c4 <frame_dummy+0x1c>)
     1b2:	f3af 8000 	nop.w
     1b6:	e8bd 4008 	ldmia.w	sp!, {r3, lr}
     1ba:	e7cf      	b.n	15c <register_tm_clones>
     1bc:	00000000 	andeq	r0, r0, r0
     1c0:	2000054c 	andcs	r0, r0, ip, asr #10
     1c4:	00001620 	andeq	r1, r0, r0, lsr #12

000001c8 <_stack_init>:
     1c8:	f5a3 3a80 	sub.w	sl, r3, #65536	@ 0x10000
     1cc:	4770      	bx	lr
     1ce:	bf00      	nop

000001d0 <_mainCRTStartup>:
     1d0:	4b15      	ldr	r3, [pc, #84]	@ (228 <_mainCRTStartup+0x58>)
     1d2:	2b00      	cmp	r3, #0
     1d4:	bf08      	it	eq
     1d6:	4b11      	ldreq	r3, [pc, #68]	@ (21c <_mainCRTStartup+0x4c>)
     1d8:	469d      	mov	sp, r3
     1da:	f7ff fff5 	bl	1c8 <_stack_init>
     1de:	2100      	movs	r1, #0
     1e0:	468b      	mov	fp, r1
     1e2:	460f      	mov	r7, r1
     1e4:	4811      	ldr	r0, [pc, #68]	@ (22c <_mainCRTStartup+0x5c>)
     1e6:	4a12      	ldr	r2, [pc, #72]	@ (230 <_mainCRTStartup+0x60>)
     1e8:	1a12      	subs	r2, r2, r0
     1ea:	f000 f8dd 	bl	3a8 <memset>
     1ee:	4b0c      	ldr	r3, [pc, #48]	@ (220 <_mainCRTStartup+0x50>)
     1f0:	2b00      	cmp	r3, #0
     1f2:	d000      	beq.n	1f6 <_mainCRTStartup+0x26>
     1f4:	4798      	blx	r3
     1f6:	4b0b      	ldr	r3, [pc, #44]	@ (224 <_mainCRTStartup+0x54>)
     1f8:	2b00      	cmp	r3, #0
     1fa:	d000      	beq.n	1fe <_mainCRTStartup+0x2e>
     1fc:	4798      	blx	r3
     1fe:	2000      	movs	r0, #0
     200:	2100      	movs	r1, #0
     202:	0004      	movs	r4, r0
     204:	000d      	movs	r5, r1
     206:	480b      	ldr	r0, [pc, #44]	@ (234 <_mainCRTStartup+0x64>)
     208:	f000 f956 	bl	4b8 <atexit>
     20c:	f000 f91e 	bl	44c <__libc_init_array>
     210:	0020      	movs	r0, r4
     212:	0029      	movs	r1, r5
     214:	f000 f810 	bl	238 <main>
     218:	f000 f940 	bl	49c <exit>
     21c:	00080000 	andeq	r0, r8, r0
	...
     228:	20000880 	andcs	r0, r0, r0, lsl #17
     22c:	20000548 	andcs	r0, r0, r8, asr #10
     230:	2000087c 	andcs	r0, r0, ip, ror r8
     234:	000004c5 	andeq	r0, r0, r5, asr #9

00000238 <main>:
     238:	b580      	push	{r7, lr}
     23a:	b082      	sub	sp, #8
     23c:	af00      	add	r7, sp, #0
     23e:	210a      	movs	r1, #10
     240:	4828      	ldr	r0, [pc, #160]	@ (2e4 <main+0xac>)
     242:	f000 f89c 	bl	37e <clear_all>
     246:	4b28      	ldr	r3, [pc, #160]	@ (2e8 <main+0xb0>)
     248:	2202      	movs	r2, #2
     24a:	212b      	movs	r1, #43	@ 0x2b
     24c:	4618      	mov	r0, r3
     24e:	f000 f87a 	bl	346 <set_all>
     252:	2261      	movs	r2, #97	@ 0x61
     254:	2100      	movs	r1, #0
     256:	4823      	ldr	r0, [pc, #140]	@ (2e4 <main+0xac>)
     258:	f000 f848 	bl	2ec <set_value>
     25c:	2109      	movs	r1, #9
     25e:	4821      	ldr	r0, [pc, #132]	@ (2e4 <main+0xac>)
     260:	f000 f863 	bl	32a <get_value>
     264:	4603      	mov	r3, r0
     266:	70fb      	strb	r3, [r7, #3]
     268:	78fb      	ldrb	r3, [r7, #3]
     26a:	3327      	adds	r3, #39	@ 0x27
     26c:	b2db      	uxtb	r3, r3
     26e:	461a      	mov	r2, r3
     270:	2109      	movs	r1, #9
     272:	481c      	ldr	r0, [pc, #112]	@ (2e4 <main+0xac>)
     274:	f000 f83a 	bl	2ec <set_value>
     278:	2237      	movs	r2, #55	@ 0x37
     27a:	2103      	movs	r1, #3
     27c:	4819      	ldr	r0, [pc, #100]	@ (2e4 <main+0xac>)
     27e:	f000 f835 	bl	2ec <set_value>
     282:	2258      	movs	r2, #88	@ 0x58
     284:	2101      	movs	r1, #1
     286:	4817      	ldr	r0, [pc, #92]	@ (2e4 <main+0xac>)
     288:	f000 f830 	bl	2ec <set_value>
     28c:	2232      	movs	r2, #50	@ 0x32
     28e:	2104      	movs	r1, #4
     290:	4814      	ldr	r0, [pc, #80]	@ (2e4 <main+0xac>)
     292:	f000 f82b 	bl	2ec <set_value>
     296:	2101      	movs	r1, #1
     298:	4812      	ldr	r0, [pc, #72]	@ (2e4 <main+0xac>)
     29a:	f000 f846 	bl	32a <get_value>
     29e:	4603      	mov	r3, r0
     2a0:	70fb      	strb	r3, [r7, #3]
     2a2:	2279      	movs	r2, #121	@ 0x79
     2a4:	2102      	movs	r1, #2
     2a6:	480f      	ldr	r0, [pc, #60]	@ (2e4 <main+0xac>)
     2a8:	f000 f820 	bl	2ec <set_value>
     2ac:	78fb      	ldrb	r3, [r7, #3]
     2ae:	3b0c      	subs	r3, #12
     2b0:	b2db      	uxtb	r3, r3
     2b2:	461a      	mov	r2, r3
     2b4:	2107      	movs	r1, #7
     2b6:	480b      	ldr	r0, [pc, #44]	@ (2e4 <main+0xac>)
     2b8:	f000 f818 	bl	2ec <set_value>
     2bc:	225f      	movs	r2, #95	@ 0x5f
     2be:	2105      	movs	r1, #5
     2c0:	4808      	ldr	r0, [pc, #32]	@ (2e4 <main+0xac>)
     2c2:	f000 f813 	bl	2ec <set_value>
     2c6:	2300      	movs	r3, #0
     2c8:	607b      	str	r3, [r7, #4]
     2ca:	e002      	b.n	2d2 <main+0x9a>
     2cc:	687b      	ldr	r3, [r7, #4]
     2ce:	3301      	adds	r3, #1
     2d0:	607b      	str	r3, [r7, #4]
     2d2:	687b      	ldr	r3, [r7, #4]
     2d4:	2b09      	cmp	r3, #9
     2d6:	d9f9      	bls.n	2cc <main+0x94>
     2d8:	2300      	movs	r3, #0
     2da:	4618      	mov	r0, r3
     2dc:	3708      	adds	r7, #8
     2de:	46bd      	mov	sp, r7
     2e0:	bd80      	pop	{r7, pc}
     2e2:	bf00      	nop
     2e4:	20000564 	andcs	r0, r0, r4, ror #10
     2e8:	2000056c 	andcs	r0, r0, ip, ror #10

000002ec <set_value>:
     2ec:	b480      	push	{r7}
     2ee:	b085      	sub	sp, #20
     2f0:	af00      	add	r7, sp, #0
     2f2:	60f8      	str	r0, [r7, #12]
     2f4:	60b9      	str	r1, [r7, #8]
     2f6:	4613      	mov	r3, r2
     2f8:	71fb      	strb	r3, [r7, #7]
     2fa:	68fa      	ldr	r2, [r7, #12]
     2fc:	68bb      	ldr	r3, [r7, #8]
     2fe:	4413      	add	r3, r2
     300:	79fa      	ldrb	r2, [r7, #7]
     302:	701a      	strb	r2, [r3, #0]
     304:	bf00      	nop
     306:	3714      	adds	r7, #20
     308:	46bd      	mov	sp, r7
     30a:	bc80      	pop	{r7}
     30c:	4770      	bx	lr

0000030e <clear_value>:
     30e:	b580      	push	{r7, lr}
     310:	b082      	sub	sp, #8
     312:	af00      	add	r7, sp, #0
     314:	6078      	str	r0, [r7, #4]
     316:	6039      	str	r1, [r7, #0]
     318:	2200      	movs	r2, #0
     31a:	6839      	ldr	r1, [r7, #0]
     31c:	6878      	ldr	r0, [r7, #4]
     31e:	f7ff ffe5 	bl	2ec <set_value>
     322:	bf00      	nop
     324:	3708      	adds	r7, #8
     326:	46bd      	mov	sp, r7
     328:	bd80      	pop	{r7, pc}

0000032a <get_value>:
     32a:	b480      	push	{r7}
     32c:	b083      	sub	sp, #12
     32e:	af00      	add	r7, sp, #0
     330:	6078      	str	r0, [r7, #4]
     332:	6039      	str	r1, [r7, #0]
     334:	687a      	ldr	r2, [r7, #4]
     336:	683b      	ldr	r3, [r7, #0]
     338:	4413      	add	r3, r2
     33a:	781b      	ldrb	r3, [r3, #0]
     33c:	4618      	mov	r0, r3
     33e:	370c      	adds	r7, #12
     340:	46bd      	mov	sp, r7
     342:	bc80      	pop	{r7}
     344:	4770      	bx	lr

00000346 <set_all>:
     346:	b580      	push	{r7, lr}
     348:	b086      	sub	sp, #24
     34a:	af00      	add	r7, sp, #0
     34c:	60f8      	str	r0, [r7, #12]
     34e:	460b      	mov	r3, r1
     350:	607a      	str	r2, [r7, #4]
     352:	72fb      	strb	r3, [r7, #11]
     354:	2300      	movs	r3, #0
     356:	617b      	str	r3, [r7, #20]
     358:	e008      	b.n	36c <set_all+0x26>
     35a:	7afb      	ldrb	r3, [r7, #11]
     35c:	461a      	mov	r2, r3
     35e:	6979      	ldr	r1, [r7, #20]
     360:	68f8      	ldr	r0, [r7, #12]
     362:	f7ff ffc3 	bl	2ec <set_value>
     366:	697b      	ldr	r3, [r7, #20]
     368:	3301      	adds	r3, #1
     36a:	617b      	str	r3, [r7, #20]
     36c:	697a      	ldr	r2, [r7, #20]
     36e:	687b      	ldr	r3, [r7, #4]
     370:	429a      	cmp	r2, r3
     372:	d3f2      	bcc.n	35a <set_all+0x14>
     374:	bf00      	nop
     376:	bf00      	nop
     378:	3718      	adds	r7, #24
     37a:	46bd      	mov	sp, r7
     37c:	bd80      	pop	{r7, pc}

0000037e <clear_all>:
     37e:	b580      	push	{r7, lr}
     380:	b082      	sub	sp, #8
     382:	af00      	add	r7, sp, #0
     384:	6078      	str	r0, [r7, #4]
     386:	6039      	str	r1, [r7, #0]
     388:	683a      	ldr	r2, [r7, #0]
     38a:	2100      	movs	r1, #0
     38c:	6878      	ldr	r0, [r7, #4]
     38e:	f7ff ffda 	bl	346 <set_all>
     392:	bf00      	nop
     394:	3708      	adds	r7, #8
     396:	46bd      	mov	sp, r7
     398:	bd80      	pop	{r7, pc}

0000039a <SystemInit>:
     39a:	b480      	push	{r7}
     39c:	af00      	add	r7, sp, #0
     39e:	bf00      	nop
     3a0:	46bd      	mov	sp, r7
     3a2:	bc80      	pop	{r7}
     3a4:	4770      	bx	lr
	...

000003a8 <memset>:
     3a8:	0783      	lsls	r3, r0, #30
     3aa:	b530      	push	{r4, r5, lr}
     3ac:	d047      	beq.n	43e <memset+0x96>
     3ae:	1e54      	subs	r4, r2, #1
     3b0:	2a00      	cmp	r2, #0
     3b2:	d03e      	beq.n	432 <memset+0x8a>
     3b4:	b2ca      	uxtb	r2, r1
     3b6:	4603      	mov	r3, r0
     3b8:	e001      	b.n	3be <memset+0x16>
     3ba:	3c01      	subs	r4, #1
     3bc:	d339      	bcc.n	432 <memset+0x8a>
     3be:	f803 2b01 	strb.w	r2, [r3], #1
     3c2:	079d      	lsls	r5, r3, #30
     3c4:	d1f9      	bne.n	3ba <memset+0x12>
     3c6:	2c03      	cmp	r4, #3
     3c8:	d92c      	bls.n	424 <memset+0x7c>
     3ca:	b2cd      	uxtb	r5, r1
     3cc:	eb05 2505 	add.w	r5, r5, r5, lsl #8
     3d0:	2c0f      	cmp	r4, #15
     3d2:	eb05 4505 	add.w	r5, r5, r5, lsl #16
     3d6:	d935      	bls.n	444 <memset+0x9c>
     3d8:	f1a4 0210 	sub.w	r2, r4, #16
     3dc:	f022 0c0f 	bic.w	ip, r2, #15
     3e0:	f103 0e10 	add.w	lr, r3, #16
     3e4:	44e6      	add	lr, ip
     3e6:	ea4f 1c12 	mov.w	ip, r2, lsr #4
     3ea:	461a      	mov	r2, r3
     3ec:	e9c2 5500 	strd	r5, r5, [r2]
     3f0:	e9c2 5502 	strd	r5, r5, [r2, #8]
     3f4:	3210      	adds	r2, #16
     3f6:	4572      	cmp	r2, lr
     3f8:	d1f8      	bne.n	3ec <memset+0x44>
     3fa:	f10c 0201 	add.w	r2, ip, #1
     3fe:	f014 0f0c 	tst.w	r4, #12
     402:	eb03 1202 	add.w	r2, r3, r2, lsl #4
     406:	f004 0c0f 	and.w	ip, r4, #15
     40a:	d013      	beq.n	434 <memset+0x8c>
     40c:	f1ac 0304 	sub.w	r3, ip, #4
     410:	f023 0303 	bic.w	r3, r3, #3
     414:	3304      	adds	r3, #4
     416:	4413      	add	r3, r2
     418:	f842 5b04 	str.w	r5, [r2], #4
     41c:	4293      	cmp	r3, r2
     41e:	d1fb      	bne.n	418 <memset+0x70>
     420:	f00c 0403 	and.w	r4, ip, #3
     424:	b12c      	cbz	r4, 432 <memset+0x8a>
     426:	b2c9      	uxtb	r1, r1
     428:	441c      	add	r4, r3
     42a:	f803 1b01 	strb.w	r1, [r3], #1
     42e:	42a3      	cmp	r3, r4
     430:	d1fb      	bne.n	42a <memset+0x82>
     432:	bd30      	pop	{r4, r5, pc}
     434:	4664      	mov	r4, ip
     436:	4613      	mov	r3, r2
     438:	2c00      	cmp	r4, #0
     43a:	d1f4      	bne.n	426 <memset+0x7e>
     43c:	e7f9      	b.n	432 <memset+0x8a>
     43e:	4603      	mov	r3, r0
     440:	4614      	mov	r4, r2
     442:	e7c0      	b.n	3c6 <memset+0x1e>
     444:	461a      	mov	r2, r3
     446:	46a4      	mov	ip, r4
     448:	e7e0      	b.n	40c <memset+0x64>
     44a:	bf00      	nop

0000044c <__libc_init_array>:
     44c:	b570      	push	{r4, r5, r6, lr}
     44e:	4b0f      	ldr	r3, [pc, #60]	@ (48c <__libc_init_array+0x40>)
     450:	4d0f      	ldr	r5, [pc, #60]	@ (490 <__libc_init_array+0x44>)
     452:	42ab      	cmp	r3, r5
     454:	eba3 0605 	sub.w	r6, r3, r5
     458:	d007      	beq.n	46a <__libc_init_array+0x1e>
     45a:	10b6      	asrs	r6, r6, #2
     45c:	2400      	movs	r4, #0
     45e:	f855 3b04 	ldr.w	r3, [r5], #4
     462:	3401      	adds	r4, #1
     464:	4798      	blx	r3
     466:	42a6      	cmp	r6, r4
     468:	d8f9      	bhi.n	45e <__libc_init_array+0x12>
     46a:	f001 f859 	bl	1520 <_init>
     46e:	4d09      	ldr	r5, [pc, #36]	@ (494 <__libc_init_array+0x48>)
     470:	4b09      	ldr	r3, [pc, #36]	@ (498 <__libc_init_array+0x4c>)
     472:	1b5e      	subs	r6, r3, r5
     474:	42ab      	cmp	r3, r5
     476:	ea4f 06a6 	mov.w	r6, r6, asr #2
     47a:	d006      	beq.n	48a <__libc_init_array+0x3e>
     47c:	2400      	movs	r4, #0
     47e:	f855 3b04 	ldr.w	r3, [r5], #4
     482:	3401      	adds	r4, #1
     484:	4798      	blx	r3
     486:	42a6      	cmp	r6, r4
     488:	d8f9      	bhi.n	47e <__libc_init_array+0x32>
     48a:	bd70      	pop	{r4, r5, r6, pc}
	...
     494:	00001518 	andeq	r1, r0, r8, lsl r5
     498:	00001520 	andeq	r1, r0, r0, lsr #10

0000049c <exit>:
     49c:	b508      	push	{r3, lr}
     49e:	2100      	movs	r1, #0
     4a0:	4604      	mov	r4, r0
     4a2:	f000 f823 	bl	4ec <__call_exitprocs>
     4a6:	4b03      	ldr	r3, [pc, #12]	@ (4b4 <exit+0x18>)
     4a8:	681b      	ldr	r3, [r3, #0]
     4aa:	b103      	cbz	r3, 4ae <exit+0x12>
     4ac:	4798      	blx	r3
     4ae:	4620      	mov	r0, r4
     4b0:	f001 f826 	bl	1500 <_exit>
     4b4:	2000083c 	andcs	r0, r0, ip, lsr r8

000004b8 <atexit>:
     4b8:	2300      	movs	r3, #0
     4ba:	4601      	mov	r1, r0
     4bc:	461a      	mov	r2, r3
     4be:	4618      	mov	r0, r3
     4c0:	f000 b86c 	b.w	59c <__register_exitproc>

000004c4 <__libc_fini_array>:
     4c4:	b538      	push	{r3, r4, r5, lr}
     4c6:	4d07      	ldr	r5, [pc, #28]	@ (4e4 <__libc_fini_array+0x20>)
     4c8:	4c07      	ldr	r4, [pc, #28]	@ (4e8 <__libc_fini_array+0x24>)
     4ca:	1b2c      	subs	r4, r5, r4
     4cc:	10a4      	asrs	r4, r4, #2
     4ce:	d005      	beq.n	4dc <__libc_fini_array+0x18>
     4d0:	3c01      	subs	r4, #1
     4d2:	f855 3d04 	ldr.w	r3, [r5, #-4]!
     4d6:	4798      	blx	r3
     4d8:	2c00      	cmp	r4, #0
     4da:	d1f9      	bne.n	4d0 <__libc_fini_array+0xc>
     4dc:	e8bd 4038 	ldmia.w	sp!, {r3, r4, r5, lr}
     4e0:	f001 b824 	b.w	152c <_fini>
	...

000004ec <__call_exitprocs>:
     4ec:	e92d 4ff0 	stmdb	sp!, {r4, r5, r6, r7, r8, r9, sl, fp, lr}
     4f0:	4f29      	ldr	r7, [pc, #164]	@ (598 <__call_exitprocs+0xac>)
     4f2:	b083      	sub	sp, #12
     4f4:	683e      	ldr	r6, [r7, #0]
     4f6:	9001      	str	r0, [sp, #4]
     4f8:	b35e      	cbz	r6, 552 <__call_exitprocs+0x66>
     4fa:	468b      	mov	fp, r1
     4fc:	f04f 0900 	mov.w	r9, #0
     500:	f04f 0801 	mov.w	r8, #1
     504:	6874      	ldr	r4, [r6, #4]
     506:	1e65      	subs	r5, r4, #1
     508:	d423      	bmi.n	552 <__call_exitprocs+0x66>
     50a:	3401      	adds	r4, #1
     50c:	eb06 0484 	add.w	r4, r6, r4, lsl #2
     510:	f1bb 0f00 	cmp.w	fp, #0
     514:	d120      	bne.n	558 <__call_exitprocs+0x6c>
     516:	6873      	ldr	r3, [r6, #4]
     518:	6822      	ldr	r2, [r4, #0]
     51a:	3b01      	subs	r3, #1
     51c:	42ab      	cmp	r3, r5
     51e:	bf0c      	ite	eq
     520:	6075      	streq	r5, [r6, #4]
     522:	f8c4 9000 	strne.w	r9, [r4]
     526:	b17a      	cbz	r2, 548 <__call_exitprocs+0x5c>
     528:	f8d6 1188 	ldr.w	r1, [r6, #392]	@ 0x188
     52c:	f8d6 a004 	ldr.w	sl, [r6, #4]
     530:	fa08 fc05 	lsl.w	ip, r8, r5
     534:	ea1c 0f01 	tst.w	ip, r1
     538:	d11a      	bne.n	570 <__call_exitprocs+0x84>
     53a:	4790      	blx	r2
     53c:	6871      	ldr	r1, [r6, #4]
     53e:	683a      	ldr	r2, [r7, #0]
     540:	4551      	cmp	r1, sl
     542:	d122      	bne.n	58a <__call_exitprocs+0x9e>
     544:	42b2      	cmp	r2, r6
     546:	d120      	bne.n	58a <__call_exitprocs+0x9e>
     548:	3d01      	subs	r5, #1
     54a:	1c6b      	adds	r3, r5, #1
     54c:	f1a4 0404 	sub.w	r4, r4, #4
     550:	d1de      	bne.n	510 <__call_exitprocs+0x24>
     552:	b003      	add	sp, #12
     554:	e8bd 8ff0 	ldmia.w	sp!, {r4, r5, r6, r7, r8, r9, sl, fp, pc}
     558:	f8d4 3100 	ldr.w	r3, [r4, #256]	@ 0x100
     55c:	455b      	cmp	r3, fp
     55e:	d0da      	beq.n	516 <__call_exitprocs+0x2a>
     560:	3d01      	subs	r5, #1
     562:	1c6a      	adds	r2, r5, #1
     564:	f1a4 0404 	sub.w	r4, r4, #4
     568:	d1f6      	bne.n	558 <__call_exitprocs+0x6c>
     56a:	b003      	add	sp, #12
     56c:	e8bd 8ff0 	ldmia.w	sp!, {r4, r5, r6, r7, r8, r9, sl, fp, pc}
     570:	f8d6 318c 	ldr.w	r3, [r6, #396]	@ 0x18c
     574:	f8d4 1080 	ldr.w	r1, [r4, #128]	@ 0x80
     578:	ea1c 0f03 	tst.w	ip, r3
     57c:	d109      	bne.n	592 <__call_exitprocs+0xa6>
     57e:	9801      	ldr	r0, [sp, #4]
     580:	4790      	blx	r2
     582:	6871      	ldr	r1, [r6, #4]
     584:	683a      	ldr	r2, [r7, #0]
     586:	4551      	cmp	r1, sl
     588:	d0dc      	beq.n	544 <__call_exitprocs+0x58>
     58a:	2a00      	cmp	r2, #0
     58c:	d0e1      	beq.n	552 <__call_exitprocs+0x66>
     58e:	4616      	mov	r6, r2
     590:	e7b8      	b.n	504 <__call_exitprocs+0x18>
     592:	4608      	mov	r0, r1
     594:	4790      	blx	r2
     596:	e7d1      	b.n	53c <__call_exitprocs+0x50>
     598:	20000570 	andcs	r0, r0, r0, ror r5

0000059c <__register_exitproc>:
     59c:	b470      	push	{r4, r5, r6}
     59e:	4d16      	ldr	r5, [pc, #88]	@ (5f8 <__register_exitproc+0x5c>)
     5a0:	682c      	ldr	r4, [r5, #0]
     5a2:	b31c      	cbz	r4, 5ec <__register_exitproc+0x50>
     5a4:	6865      	ldr	r5, [r4, #4]
     5a6:	2d1f      	cmp	r5, #31
     5a8:	dc23      	bgt.n	5f2 <__register_exitproc+0x56>
     5aa:	b938      	cbnz	r0, 5bc <__register_exitproc+0x20>
     5ac:	1cab      	adds	r3, r5, #2
     5ae:	3501      	adds	r5, #1
     5b0:	6065      	str	r5, [r4, #4]
     5b2:	f844 1023 	str.w	r1, [r4, r3, lsl #2]
     5b6:	2000      	movs	r0, #0
     5b8:	bc70      	pop	{r4, r5, r6}
     5ba:	4770      	bx	lr
     5bc:	eb04 0c85 	add.w	ip, r4, r5, lsl #2
     5c0:	2802      	cmp	r0, #2
     5c2:	f8cc 2088 	str.w	r2, [ip, #136]	@ 0x88
     5c6:	f8d4 6188 	ldr.w	r6, [r4, #392]	@ 0x188
     5ca:	f04f 0201 	mov.w	r2, #1
     5ce:	fa02 f205 	lsl.w	r2, r2, r5
     5d2:	ea46 0602 	orr.w	r6, r6, r2
     5d6:	f8c4 6188 	str.w	r6, [r4, #392]	@ 0x188
     5da:	f8cc 3108 	str.w	r3, [ip, #264]	@ 0x108
     5de:	d1e5      	bne.n	5ac <__register_exitproc+0x10>
     5e0:	f8d4 318c 	ldr.w	r3, [r4, #396]	@ 0x18c
     5e4:	4313      	orrs	r3, r2
     5e6:	f8c4 318c 	str.w	r3, [r4, #396]	@ 0x18c
     5ea:	e7df      	b.n	5ac <__register_exitproc+0x10>
     5ec:	4c03      	ldr	r4, [pc, #12]	@ (5fc <__register_exitproc+0x60>)
     5ee:	602c      	str	r4, [r5, #0]
     5f0:	e7d8      	b.n	5a4 <__register_exitproc+0x8>
     5f2:	f04f 30ff 	mov.w	r0, #4294967295	@ 0xffffffff
     5f6:	e7df      	b.n	5b8 <__register_exitproc+0x1c>
     5f8:	20000570 	andcs	r0, r0, r0, ror r5
     5fc:	20000574 	andcs	r0, r0, r4, ror r5

00000600 <__fp_lock>:
     600:	2000      	movs	r0, #0
     602:	4770      	bx	lr

00000604 <stdio_exit_handler>:
     604:	4a02      	ldr	r2, [pc, #8]	@ (610 <stdio_exit_handler+0xc>)
     606:	4903      	ldr	r1, [pc, #12]	@ (614 <stdio_exit_handler+0x10>)
     608:	4803      	ldr	r0, [pc, #12]	@ (618 <stdio_exit_handler+0x14>)
     60a:	f000 b90b 	b.w	824 <_fwalk_sglue>
     60e:	bf00      	nop
     610:	20000004 	andcs	r0, r0, r4
     614:	0000106d 	andeq	r1, r0, sp, rrx
     618:	20000018 	andcs	r0, r0, r8, lsl r0

0000061c <cleanup_stdio>:
     61c:	4b0c      	ldr	r3, [pc, #48]	@ (650 <cleanup_stdio+0x34>)
     61e:	6841      	ldr	r1, [r0, #4]
     620:	4299      	cmp	r1, r3
     622:	b510      	push	{r4, lr}
     624:	4604      	mov	r4, r0
     626:	d001      	beq.n	62c <cleanup_stdio+0x10>
     628:	f000 fd20 	bl	106c <_fclose_r>
     62c:	68a1      	ldr	r1, [r4, #8]
     62e:	4b09      	ldr	r3, [pc, #36]	@ (654 <cleanup_stdio+0x38>)
     630:	4299      	cmp	r1, r3
     632:	d002      	beq.n	63a <cleanup_stdio+0x1e>
     634:	4620      	mov	r0, r4
     636:	f000 fd19 	bl	106c <_fclose_r>
     63a:	68e1      	ldr	r1, [r4, #12]
     63c:	4b06      	ldr	r3, [pc, #24]	@ (658 <cleanup_stdio+0x3c>)
     63e:	4299      	cmp	r1, r3
     640:	d004      	beq.n	64c <cleanup_stdio+0x30>
     642:	4620      	mov	r0, r4
     644:	e8bd 4010 	ldmia.w	sp!, {r4, lr}
     648:	f000 bd10 	b.w	106c <_fclose_r>
     64c:	bd10      	pop	{r4, pc}
     64e:	bf00      	nop
     650:	20000704 	andcs	r0, r0, r4, lsl #14
     654:	2000076c 	andcs	r0, r0, ip, ror #14
     658:	200007d4 	ldrdcs	r0, [r0], -r4

0000065c <__fp_unlock>:
     65c:	2000      	movs	r0, #0
     65e:	4770      	bx	lr

00000660 <global_stdio_init.part.0>:
     660:	e92d 43f8 	stmdb	sp!, {r3, r4, r5, r6, r7, r8, r9, lr}
     664:	4c2a      	ldr	r4, [pc, #168]	@ (710 <global_stdio_init.part.0+0xb0>)
     666:	492b      	ldr	r1, [pc, #172]	@ (714 <global_stdio_init.part.0+0xb4>)
     668:	f8df 90bc 	ldr.w	r9, [pc, #188]	@ 728 <global_stdio_init.part.0+0xc8>
     66c:	f8df 80bc 	ldr.w	r8, [pc, #188]	@ 72c <global_stdio_init.part.0+0xcc>
     670:	4f29      	ldr	r7, [pc, #164]	@ (718 <global_stdio_init.part.0+0xb8>)
     672:	f8c4 1138 	str.w	r1, [r4, #312]	@ 0x138
     676:	2500      	movs	r5, #0
     678:	2304      	movs	r3, #4
     67a:	2208      	movs	r2, #8
     67c:	4629      	mov	r1, r5
     67e:	f104 005c 	add.w	r0, r4, #92	@ 0x5c
     682:	4e26      	ldr	r6, [pc, #152]	@ (71c <global_stdio_init.part.0+0xbc>)
     684:	60e3      	str	r3, [r4, #12]
     686:	e9c4 5500 	strd	r5, r5, [r4]
     68a:	e9c4 5504 	strd	r5, r5, [r4, #16]
     68e:	60a5      	str	r5, [r4, #8]
     690:	6665      	str	r5, [r4, #100]	@ 0x64
     692:	61a5      	str	r5, [r4, #24]
     694:	f7ff fe88 	bl	3a8 <memset>
     698:	4b21      	ldr	r3, [pc, #132]	@ (720 <global_stdio_init.part.0+0xc0>)
     69a:	6763      	str	r3, [r4, #116]	@ 0x74
     69c:	2208      	movs	r2, #8
     69e:	4629      	mov	r1, r5
     6a0:	f104 00c4 	add.w	r0, r4, #196	@ 0xc4
     6a4:	e9c4 4907 	strd	r4, r9, [r4, #28]
     6a8:	e9c4 8709 	strd	r8, r7, [r4, #36]	@ 0x24
     6ac:	e9c4 551a 	strd	r5, r5, [r4, #104]	@ 0x68
     6b0:	e9c4 551e 	strd	r5, r5, [r4, #120]	@ 0x78
     6b4:	6725      	str	r5, [r4, #112]	@ 0x70
     6b6:	f8c4 50cc 	str.w	r5, [r4, #204]	@ 0xcc
     6ba:	f8c4 5080 	str.w	r5, [r4, #128]	@ 0x80
     6be:	62e6      	str	r6, [r4, #44]	@ 0x2c
     6c0:	f7ff fe72 	bl	3a8 <memset>
     6c4:	4b17      	ldr	r3, [pc, #92]	@ (724 <global_stdio_init.part.0+0xc4>)
     6c6:	f8c4 30dc 	str.w	r3, [r4, #220]	@ 0xdc
     6ca:	4629      	mov	r1, r5
     6cc:	f104 0368 	add.w	r3, r4, #104	@ 0x68
     6d0:	2208      	movs	r2, #8
     6d2:	f504 7096 	add.w	r0, r4, #300	@ 0x12c
     6d6:	f8c4 3084 	str.w	r3, [r4, #132]	@ 0x84
     6da:	e9c4 9822 	strd	r9, r8, [r4, #136]	@ 0x88
     6de:	e9c4 7624 	strd	r7, r6, [r4, #144]	@ 0x90
     6e2:	e9c4 5534 	strd	r5, r5, [r4, #208]	@ 0xd0
     6e6:	e9c4 5538 	strd	r5, r5, [r4, #224]	@ 0xe0
     6ea:	f8c4 50d8 	str.w	r5, [r4, #216]	@ 0xd8
     6ee:	f8c4 5134 	str.w	r5, [r4, #308]	@ 0x134
     6f2:	f8c4 50e8 	str.w	r5, [r4, #232]	@ 0xe8
     6f6:	f7ff fe57 	bl	3a8 <memset>
     6fa:	f104 03d0 	add.w	r3, r4, #208	@ 0xd0
     6fe:	e9c4 983c 	strd	r9, r8, [r4, #240]	@ 0xf0
     702:	e9c4 763e 	strd	r7, r6, [r4, #248]	@ 0xf8
     706:	f8c4 30ec 	str.w	r3, [r4, #236]	@ 0xec
     70a:	e8bd 83f8 	ldmia.w	sp!, {r3, r4, r5, r6, r7, r8, r9, pc}
     70e:	bf00      	nop
     710:	20000704 	andcs	r0, r0, r4, lsl #14
     714:	00000605 	andeq	r0, r0, r5, lsl #12
     718:	00001181 	andeq	r1, r0, r1, lsl #3
     71c:	000011a5 	andeq	r1, r0, r5, lsr #3
     720:	00010009 	andeq	r0, r1, r9
     724:	00020012 	andeq	r0, r2, r2, lsl r0
     728:	00001119 	andeq	r1, r0, r9, lsl r1
     72c:	00001141 	andeq	r1, r0, r1, asr #2

00000730 <__sfp>:
     730:	b5f8      	push	{r3, r4, r5, r6, r7, lr}
     732:	4b25      	ldr	r3, [pc, #148]	@ (7c8 <__sfp+0x98>)
     734:	f8d3 3138 	ldr.w	r3, [r3, #312]	@ 0x138
     738:	4606      	mov	r6, r0
     73a:	2b00      	cmp	r3, #0
     73c:	d03c      	beq.n	7b8 <__sfp+0x88>
     73e:	4f23      	ldr	r7, [pc, #140]	@ (7cc <__sfp+0x9c>)
     740:	e9d7 3401 	ldrd	r3, r4, [r7, #4]
     744:	3b01      	subs	r3, #1
     746:	d504      	bpl.n	752 <__sfp+0x22>
     748:	e01d      	b.n	786 <__sfp+0x56>
     74a:	1c5a      	adds	r2, r3, #1
     74c:	f104 0468 	add.w	r4, r4, #104	@ 0x68
     750:	d019      	beq.n	786 <__sfp+0x56>
     752:	f9b4 500c 	ldrsh.w	r5, [r4, #12]
     756:	3b01      	subs	r3, #1
     758:	2d00      	cmp	r5, #0
     75a:	d1f6      	bne.n	74a <__sfp+0x1a>
     75c:	4b1c      	ldr	r3, [pc, #112]	@ (7d0 <__sfp+0xa0>)
     75e:	60e3      	str	r3, [r4, #12]
     760:	e9c4 5501 	strd	r5, r5, [r4, #4]
     764:	e9c4 5504 	strd	r5, r5, [r4, #16]
     768:	6665      	str	r5, [r4, #100]	@ 0x64
     76a:	6025      	str	r5, [r4, #0]
     76c:	61a5      	str	r5, [r4, #24]
     76e:	2208      	movs	r2, #8
     770:	4629      	mov	r1, r5
     772:	f104 005c 	add.w	r0, r4, #92	@ 0x5c
     776:	f7ff fe17 	bl	3a8 <memset>
     77a:	e9c4 550c 	strd	r5, r5, [r4, #48]	@ 0x30
     77e:	e9c4 5511 	strd	r5, r5, [r4, #68]	@ 0x44
     782:	4620      	mov	r0, r4
     784:	bdf8      	pop	{r3, r4, r5, r6, r7, pc}
     786:	683d      	ldr	r5, [r7, #0]
     788:	b10d      	cbz	r5, 78e <__sfp+0x5e>
     78a:	462f      	mov	r7, r5
     78c:	e7d8      	b.n	740 <__sfp+0x10>
     78e:	f44f 71d6 	mov.w	r1, #428	@ 0x1ac
     792:	4630      	mov	r0, r6
     794:	f000 f868 	bl	868 <_malloc_r>
     798:	4604      	mov	r4, r0
     79a:	b180      	cbz	r0, 7be <__sfp+0x8e>
     79c:	2304      	movs	r3, #4
     79e:	e9c0 5300 	strd	r5, r3, [r0]
     7a2:	300c      	adds	r0, #12
     7a4:	4629      	mov	r1, r5
     7a6:	60a0      	str	r0, [r4, #8]
     7a8:	f44f 72d0 	mov.w	r2, #416	@ 0x1a0
     7ac:	4625      	mov	r5, r4
     7ae:	f7ff fdfb 	bl	3a8 <memset>
     7b2:	603c      	str	r4, [r7, #0]
     7b4:	462f      	mov	r7, r5
     7b6:	e7c3      	b.n	740 <__sfp+0x10>
     7b8:	f7ff ff52 	bl	660 <global_stdio_init.part.0>
     7bc:	e7bf      	b.n	73e <__sfp+0xe>
     7be:	230c      	movs	r3, #12
     7c0:	6038      	str	r0, [r7, #0]
     7c2:	6033      	str	r3, [r6, #0]
     7c4:	e7dd      	b.n	782 <__sfp+0x52>
     7c6:	bf00      	nop
     7c8:	20000704 	andcs	r0, r0, r4, lsl #14
     7cc:	20000004 	andcs	r0, r0, r4
     7d0:	ffff0001 			@ <UNDEFINED> instruction: 0xffff0001

000007d4 <__sinit>:
     7d4:	6b43      	ldr	r3, [r0, #52]	@ 0x34
     7d6:	b103      	cbz	r3, 7da <__sinit+0x6>
     7d8:	4770      	bx	lr
     7da:	4b04      	ldr	r3, [pc, #16]	@ (7ec <__sinit+0x18>)
     7dc:	4a04      	ldr	r2, [pc, #16]	@ (7f0 <__sinit+0x1c>)
     7de:	f8d3 3138 	ldr.w	r3, [r3, #312]	@ 0x138
     7e2:	6342      	str	r2, [r0, #52]	@ 0x34
     7e4:	2b00      	cmp	r3, #0
     7e6:	d1f7      	bne.n	7d8 <__sinit+0x4>
     7e8:	e73a      	b.n	660 <global_stdio_init.part.0>
     7ea:	bf00      	nop
     7ec:	20000704 	andcs	r0, r0, r4, lsl #14
     7f0:	0000061d 	andeq	r0, r0, sp, lsl r6

000007f4 <__sfp_lock_acquire>:
     7f4:	4770      	bx	lr
     7f6:	bf00      	nop

000007f8 <__sfp_lock_release>:
     7f8:	4770      	bx	lr
     7fa:	bf00      	nop

000007fc <__fp_lock_all>:
     7fc:	4a02      	ldr	r2, [pc, #8]	@ (808 <__fp_lock_all+0xc>)
     7fe:	4903      	ldr	r1, [pc, #12]	@ (80c <__fp_lock_all+0x10>)
     800:	2000      	movs	r0, #0
     802:	f000 b80f 	b.w	824 <_fwalk_sglue>
     806:	bf00      	nop
     808:	20000004 	andcs	r0, r0, r4
     80c:	00000601 	andeq	r0, r0, r1, lsl #12

00000810 <__fp_unlock_all>:
     810:	4a02      	ldr	r2, [pc, #8]	@ (81c <__fp_unlock_all+0xc>)
     812:	4903      	ldr	r1, [pc, #12]	@ (820 <__fp_unlock_all+0x10>)
     814:	2000      	movs	r0, #0
     816:	f000 b805 	b.w	824 <_fwalk_sglue>
     81a:	bf00      	nop
     81c:	20000004 	andcs	r0, r0, r4
     820:	0000065d 	andeq	r0, r0, sp, asr r6

00000824 <_fwalk_sglue>:
     824:	e92d 43f8 	stmdb	sp!, {r3, r4, r5, r6, r7, r8, r9, lr}
     828:	4607      	mov	r7, r0
     82a:	4688      	mov	r8, r1
     82c:	4616      	mov	r6, r2
     82e:	f04f 0900 	mov.w	r9, #0
     832:	e9d6 5401 	ldrd	r5, r4, [r6, #4]
     836:	3d01      	subs	r5, #1
     838:	d410      	bmi.n	85c <_fwalk_sglue+0x38>
     83a:	89a3      	ldrh	r3, [r4, #12]
     83c:	2b01      	cmp	r3, #1
     83e:	d908      	bls.n	852 <_fwalk_sglue+0x2e>
     840:	f9b4 300e 	ldrsh.w	r3, [r4, #14]
     844:	3301      	adds	r3, #1
     846:	4621      	mov	r1, r4
     848:	4638      	mov	r0, r7
     84a:	d002      	beq.n	852 <_fwalk_sglue+0x2e>
     84c:	47c0      	blx	r8
     84e:	ea49 0900 	orr.w	r9, r9, r0
     852:	3d01      	subs	r5, #1
     854:	1c6b      	adds	r3, r5, #1
     856:	f104 0468 	add.w	r4, r4, #104	@ 0x68
     85a:	d1ee      	bne.n	83a <_fwalk_sglue+0x16>
     85c:	6836      	ldr	r6, [r6, #0]
     85e:	2e00      	cmp	r6, #0
     860:	d1e7      	bne.n	832 <_fwalk_sglue+0xe>
     862:	4648      	mov	r0, r9
     864:	e8bd 83f8 	ldmia.w	sp!, {r3, r4, r5, r6, r7, r8, r9, pc}

00000868 <_malloc_r>:
     868:	e92d 4ff0 	stmdb	sp!, {r4, r5, r6, r7, r8, r9, sl, fp, lr}
     86c:	f101 050b 	add.w	r5, r1, #11
     870:	2d16      	cmp	r5, #22
     872:	b083      	sub	sp, #12
     874:	4606      	mov	r6, r0
     876:	d823      	bhi.n	8c0 <_malloc_r+0x58>
     878:	2910      	cmp	r1, #16
     87a:	f200 80af 	bhi.w	9dc <_malloc_r+0x174>
     87e:	f000 fcab 	bl	11d8 <__malloc_lock>
     882:	2510      	movs	r5, #16
     884:	2318      	movs	r3, #24
     886:	2002      	movs	r0, #2
     888:	4fc0      	ldr	r7, [pc, #768]	@ (b8c <_malloc_r+0x324>)
     88a:	443b      	add	r3, r7
     88c:	f1a3 0208 	sub.w	r2, r3, #8
     890:	685c      	ldr	r4, [r3, #4]
     892:	4294      	cmp	r4, r2
     894:	f000 8124 	beq.w	ae0 <_malloc_r+0x278>
     898:	6863      	ldr	r3, [r4, #4]
     89a:	68e2      	ldr	r2, [r4, #12]
     89c:	68a1      	ldr	r1, [r4, #8]
     89e:	f023 0303 	bic.w	r3, r3, #3
     8a2:	60ca      	str	r2, [r1, #12]
     8a4:	4423      	add	r3, r4
     8a6:	4630      	mov	r0, r6
     8a8:	6091      	str	r1, [r2, #8]
     8aa:	685a      	ldr	r2, [r3, #4]
     8ac:	f042 0201 	orr.w	r2, r2, #1
     8b0:	605a      	str	r2, [r3, #4]
     8b2:	f000 fc93 	bl	11dc <__malloc_unlock>
     8b6:	3408      	adds	r4, #8
     8b8:	4620      	mov	r0, r4
     8ba:	b003      	add	sp, #12
     8bc:	e8bd 8ff0 	ldmia.w	sp!, {r4, r5, r6, r7, r8, r9, sl, fp, pc}
     8c0:	f035 0507 	bics.w	r5, r5, #7
     8c4:	f100 808a 	bmi.w	9dc <_malloc_r+0x174>
     8c8:	42a9      	cmp	r1, r5
     8ca:	f200 8087 	bhi.w	9dc <_malloc_r+0x174>
     8ce:	f000 fc83 	bl	11d8 <__malloc_lock>
     8d2:	f5b5 7ffc 	cmp.w	r5, #504	@ 0x1f8
     8d6:	f0c0 816b 	bcc.w	bb0 <_malloc_r+0x348>
     8da:	0a6b      	lsrs	r3, r5, #9
     8dc:	f000 8082 	beq.w	9e4 <_malloc_r+0x17c>
     8e0:	2b04      	cmp	r3, #4
     8e2:	f200 8123 	bhi.w	b2c <_malloc_r+0x2c4>
     8e6:	09ab      	lsrs	r3, r5, #6
     8e8:	f103 0039 	add.w	r0, r3, #57	@ 0x39
     8ec:	f103 0e38 	add.w	lr, r3, #56	@ 0x38
     8f0:	00c3      	lsls	r3, r0, #3
     8f2:	4fa6      	ldr	r7, [pc, #664]	@ (b8c <_malloc_r+0x324>)
     8f4:	443b      	add	r3, r7
     8f6:	f1a3 0c08 	sub.w	ip, r3, #8
     8fa:	685c      	ldr	r4, [r3, #4]
     8fc:	45a4      	cmp	ip, r4
     8fe:	d107      	bne.n	910 <_malloc_r+0xa8>
     900:	e00d      	b.n	91e <_malloc_r+0xb6>
     902:	2a00      	cmp	r2, #0
     904:	68e1      	ldr	r1, [r4, #12]
     906:	f280 80e5 	bge.w	ad4 <_malloc_r+0x26c>
     90a:	458c      	cmp	ip, r1
     90c:	d007      	beq.n	91e <_malloc_r+0xb6>
     90e:	460c      	mov	r4, r1
     910:	6863      	ldr	r3, [r4, #4]
     912:	f023 0303 	bic.w	r3, r3, #3
     916:	1b5a      	subs	r2, r3, r5
     918:	2a0f      	cmp	r2, #15
     91a:	ddf2      	ble.n	902 <_malloc_r+0x9a>
     91c:	4670      	mov	r0, lr
     91e:	f8df 8270 	ldr.w	r8, [pc, #624]	@ b90 <_malloc_r+0x328>
     922:	693c      	ldr	r4, [r7, #16]
     924:	4544      	cmp	r4, r8
     926:	f000 80c2 	beq.w	aae <_malloc_r+0x246>
     92a:	6863      	ldr	r3, [r4, #4]
     92c:	f023 0c03 	bic.w	ip, r3, #3
     930:	ebac 0305 	sub.w	r3, ip, r5
     934:	2b0f      	cmp	r3, #15
     936:	f300 813f 	bgt.w	bb8 <_malloc_r+0x350>
     93a:	2b00      	cmp	r3, #0
     93c:	e9c7 8804 	strd	r8, r8, [r7, #16]
     940:	f280 812a 	bge.w	b98 <_malloc_r+0x330>
     944:	f5bc 7f00 	cmp.w	ip, #512	@ 0x200
     948:	f8d7 e004 	ldr.w	lr, [r7, #4]
     94c:	f080 80ce 	bcs.w	aec <_malloc_r+0x284>
     950:	ea4f 01dc 	mov.w	r1, ip, lsr #3
     954:	3101      	adds	r1, #1
     956:	ea4f 1c5c 	mov.w	ip, ip, lsr #5
     95a:	2301      	movs	r3, #1
     95c:	fa03 f30c 	lsl.w	r3, r3, ip
     960:	f857 2031 	ldr.w	r2, [r7, r1, lsl #3]
     964:	60a2      	str	r2, [r4, #8]
     966:	ea4e 0e03 	orr.w	lr, lr, r3
     96a:	eb07 03c1 	add.w	r3, r7, r1, lsl #3
     96e:	3b08      	subs	r3, #8
     970:	60e3      	str	r3, [r4, #12]
     972:	f8c7 e004 	str.w	lr, [r7, #4]
     976:	f847 4031 	str.w	r4, [r7, r1, lsl #3]
     97a:	60d4      	str	r4, [r2, #12]
     97c:	1083      	asrs	r3, r0, #2
     97e:	f04f 0c01 	mov.w	ip, #1
     982:	fa0c fc03 	lsl.w	ip, ip, r3
     986:	45f4      	cmp	ip, lr
     988:	d832      	bhi.n	9f0 <_malloc_r+0x188>
     98a:	ea1c 0f0e 	tst.w	ip, lr
     98e:	d108      	bne.n	9a2 <_malloc_r+0x13a>
     990:	f020 0003 	bic.w	r0, r0, #3
     994:	ea4f 0c4c 	mov.w	ip, ip, lsl #1
     998:	ea1c 0f0e 	tst.w	ip, lr
     99c:	f100 0004 	add.w	r0, r0, #4
     9a0:	d0f8      	beq.n	994 <_malloc_r+0x12c>
     9a2:	eb07 0ac0 	add.w	sl, r7, r0, lsl #3
     9a6:	46d6      	mov	lr, sl
     9a8:	4681      	mov	r9, r0
     9aa:	f8de 300c 	ldr.w	r3, [lr, #12]
     9ae:	e00b      	b.n	9c8 <_malloc_r+0x160>
     9b0:	6859      	ldr	r1, [r3, #4]
     9b2:	f021 0103 	bic.w	r1, r1, #3
     9b6:	1b4a      	subs	r2, r1, r5
     9b8:	2a0f      	cmp	r2, #15
     9ba:	461c      	mov	r4, r3
     9bc:	68db      	ldr	r3, [r3, #12]
     9be:	f300 80c1 	bgt.w	b44 <_malloc_r+0x2dc>
     9c2:	2a00      	cmp	r2, #0
     9c4:	f280 80d5 	bge.w	b72 <_malloc_r+0x30a>
     9c8:	459e      	cmp	lr, r3
     9ca:	d1f1      	bne.n	9b0 <_malloc_r+0x148>
     9cc:	f109 0901 	add.w	r9, r9, #1
     9d0:	f019 0f03 	tst.w	r9, #3
     9d4:	f10e 0e08 	add.w	lr, lr, #8
     9d8:	d1e7      	bne.n	9aa <_malloc_r+0x142>
     9da:	e116      	b.n	c0a <_malloc_r+0x3a2>
     9dc:	230c      	movs	r3, #12
     9de:	6033      	str	r3, [r6, #0]
     9e0:	2400      	movs	r4, #0
     9e2:	e769      	b.n	8b8 <_malloc_r+0x50>
     9e4:	f44f 7300 	mov.w	r3, #512	@ 0x200
     9e8:	2040      	movs	r0, #64	@ 0x40
     9ea:	f04f 0e3f 	mov.w	lr, #63	@ 0x3f
     9ee:	e780      	b.n	8f2 <_malloc_r+0x8a>
     9f0:	68bc      	ldr	r4, [r7, #8]
     9f2:	6863      	ldr	r3, [r4, #4]
     9f4:	f023 0903 	bic.w	r9, r3, #3
     9f8:	45a9      	cmp	r9, r5
     9fa:	d303      	bcc.n	a04 <_malloc_r+0x19c>
     9fc:	eba9 0305 	sub.w	r3, r9, r5
     a00:	2b0f      	cmp	r3, #15
     a02:	dc57      	bgt.n	ab4 <_malloc_r+0x24c>
     a04:	f8df b18c 	ldr.w	fp, [pc, #396]	@ b94 <_malloc_r+0x32c>
     a08:	f8db 2000 	ldr.w	r2, [fp]
     a0c:	eb04 0309 	add.w	r3, r4, r9
     a10:	3210      	adds	r2, #16
     a12:	2008      	movs	r0, #8
     a14:	eb02 0805 	add.w	r8, r2, r5
     a18:	9300      	str	r3, [sp, #0]
     a1a:	f000 fb6f 	bl	10fc <sysconf>
     a1e:	f8d7 1408 	ldr.w	r1, [r7, #1032]	@ 0x408
     a22:	3101      	adds	r1, #1
     a24:	4602      	mov	r2, r0
     a26:	d005      	beq.n	a34 <_malloc_r+0x1cc>
     a28:	f108 38ff 	add.w	r8, r8, #4294967295	@ 0xffffffff
     a2c:	4480      	add	r8, r0
     a2e:	4241      	negs	r1, r0
     a30:	ea01 0808 	and.w	r8, r1, r8
     a34:	4641      	mov	r1, r8
     a36:	4630      	mov	r0, r6
     a38:	9201      	str	r2, [sp, #4]
     a3a:	f000 fbd1 	bl	11e0 <_sbrk_r>
     a3e:	f1b0 3fff 	cmp.w	r0, #4294967295	@ 0xffffffff
     a42:	9a01      	ldr	r2, [sp, #4]
     a44:	4682      	mov	sl, r0
     a46:	f000 80d2 	beq.w	bee <_malloc_r+0x386>
     a4a:	9b00      	ldr	r3, [sp, #0]
     a4c:	4283      	cmp	r3, r0
     a4e:	f200 80cc 	bhi.w	bea <_malloc_r+0x382>
     a52:	f8db 1004 	ldr.w	r1, [fp, #4]
     a56:	4441      	add	r1, r8
     a58:	f8cb 1004 	str.w	r1, [fp, #4]
     a5c:	4608      	mov	r0, r1
     a5e:	f102 3cff 	add.w	ip, r2, #4294967295	@ 0xffffffff
     a62:	f040 80f4 	bne.w	c4e <_malloc_r+0x3e6>
     a66:	ea1a 0f0c 	tst.w	sl, ip
     a6a:	f040 80f0 	bne.w	c4e <_malloc_r+0x3e6>
     a6e:	f8d7 a008 	ldr.w	sl, [r7, #8]
     a72:	44c8      	add	r8, r9
     a74:	f048 0001 	orr.w	r0, r8, #1
     a78:	f8ca 0004 	str.w	r0, [sl, #4]
     a7c:	f8db 202c 	ldr.w	r2, [fp, #44]	@ 0x2c
     a80:	428a      	cmp	r2, r1
     a82:	f8db 2030 	ldr.w	r2, [fp, #48]	@ 0x30
     a86:	bf38      	it	cc
     a88:	f8cb 102c 	strcc.w	r1, [fp, #44]	@ 0x2c
     a8c:	428a      	cmp	r2, r1
     a8e:	bf38      	it	cc
     a90:	f8cb 1030 	strcc.w	r1, [fp, #48]	@ 0x30
     a94:	4654      	mov	r4, sl
     a96:	f020 0803 	bic.w	r8, r0, #3
     a9a:	45a8      	cmp	r8, r5
     a9c:	eba8 0305 	sub.w	r3, r8, r5
     aa0:	d301      	bcc.n	aa6 <_malloc_r+0x23e>
     aa2:	2b0f      	cmp	r3, #15
     aa4:	dc06      	bgt.n	ab4 <_malloc_r+0x24c>
     aa6:	4630      	mov	r0, r6
     aa8:	f000 fb98 	bl	11dc <__malloc_unlock>
     aac:	e798      	b.n	9e0 <_malloc_r+0x178>
     aae:	f8d7 e004 	ldr.w	lr, [r7, #4]
     ab2:	e763      	b.n	97c <_malloc_r+0x114>
     ab4:	1962      	adds	r2, r4, r5
     ab6:	f043 0301 	orr.w	r3, r3, #1
     aba:	f045 0501 	orr.w	r5, r5, #1
     abe:	6065      	str	r5, [r4, #4]
     ac0:	4630      	mov	r0, r6
     ac2:	60ba      	str	r2, [r7, #8]
     ac4:	6053      	str	r3, [r2, #4]
     ac6:	f000 fb89 	bl	11dc <__malloc_unlock>
     aca:	3408      	adds	r4, #8
     acc:	4620      	mov	r0, r4
     ace:	b003      	add	sp, #12
     ad0:	e8bd 8ff0 	ldmia.w	sp!, {r4, r5, r6, r7, r8, r9, sl, fp, pc}
     ad4:	68a2      	ldr	r2, [r4, #8]
     ad6:	4423      	add	r3, r4
     ad8:	60d1      	str	r1, [r2, #12]
     ada:	4630      	mov	r0, r6
     adc:	608a      	str	r2, [r1, #8]
     ade:	e6e4      	b.n	8aa <_malloc_r+0x42>
     ae0:	68dc      	ldr	r4, [r3, #12]
     ae2:	42a3      	cmp	r3, r4
     ae4:	f47f aed8 	bne.w	898 <_malloc_r+0x30>
     ae8:	3002      	adds	r0, #2
     aea:	e718      	b.n	91e <_malloc_r+0xb6>
     aec:	f5bc 6f20 	cmp.w	ip, #2560	@ 0xa00
     af0:	ea4f 225c 	mov.w	r2, ip, lsr #9
     af4:	d372      	bcc.n	bdc <_malloc_r+0x374>
     af6:	2a14      	cmp	r2, #20
     af8:	f200 8108 	bhi.w	d0c <_malloc_r+0x4a4>
     afc:	f102 035c 	add.w	r3, r2, #92	@ 0x5c
     b00:	00db      	lsls	r3, r3, #3
     b02:	325b      	adds	r2, #91	@ 0x5b
     b04:	18f9      	adds	r1, r7, r3
     b06:	58fb      	ldr	r3, [r7, r3]
     b08:	3908      	subs	r1, #8
     b0a:	4299      	cmp	r1, r3
     b0c:	d103      	bne.n	b16 <_malloc_r+0x2ae>
     b0e:	e0e4      	b.n	cda <_malloc_r+0x472>
     b10:	689b      	ldr	r3, [r3, #8]
     b12:	4299      	cmp	r1, r3
     b14:	d004      	beq.n	b20 <_malloc_r+0x2b8>
     b16:	685a      	ldr	r2, [r3, #4]
     b18:	f022 0203 	bic.w	r2, r2, #3
     b1c:	4562      	cmp	r2, ip
     b1e:	d8f7      	bhi.n	b10 <_malloc_r+0x2a8>
     b20:	68d9      	ldr	r1, [r3, #12]
     b22:	e9c4 3102 	strd	r3, r1, [r4, #8]
     b26:	608c      	str	r4, [r1, #8]
     b28:	60dc      	str	r4, [r3, #12]
     b2a:	e727      	b.n	97c <_malloc_r+0x114>
     b2c:	2b14      	cmp	r3, #20
     b2e:	d961      	bls.n	bf4 <_malloc_r+0x38c>
     b30:	2b54      	cmp	r3, #84	@ 0x54
     b32:	f200 80f4 	bhi.w	d1e <_malloc_r+0x4b6>
     b36:	0b2b      	lsrs	r3, r5, #12
     b38:	f103 006f 	add.w	r0, r3, #111	@ 0x6f
     b3c:	f103 0e6e 	add.w	lr, r3, #110	@ 0x6e
     b40:	00c3      	lsls	r3, r0, #3
     b42:	e6d6      	b.n	8f2 <_malloc_r+0x8a>
     b44:	f8d4 c008 	ldr.w	ip, [r4, #8]
     b48:	4630      	mov	r0, r6
     b4a:	1966      	adds	r6, r4, r5
     b4c:	f045 0501 	orr.w	r5, r5, #1
     b50:	6065      	str	r5, [r4, #4]
     b52:	f8cc 300c 	str.w	r3, [ip, #12]
     b56:	f8c3 c008 	str.w	ip, [r3, #8]
     b5a:	f042 0301 	orr.w	r3, r2, #1
     b5e:	e9c7 6604 	strd	r6, r6, [r7, #16]
     b62:	e9c6 8802 	strd	r8, r8, [r6, #8]
     b66:	6073      	str	r3, [r6, #4]
     b68:	5062      	str	r2, [r4, r1]
     b6a:	f000 fb37 	bl	11dc <__malloc_unlock>
     b6e:	3408      	adds	r4, #8
     b70:	e6a2      	b.n	8b8 <_malloc_r+0x50>
     b72:	4421      	add	r1, r4
     b74:	4630      	mov	r0, r6
     b76:	684a      	ldr	r2, [r1, #4]
     b78:	f042 0201 	orr.w	r2, r2, #1
     b7c:	604a      	str	r2, [r1, #4]
     b7e:	f854 2f08 	ldr.w	r2, [r4, #8]!
     b82:	60d3      	str	r3, [r2, #12]
     b84:	609a      	str	r2, [r3, #8]
     b86:	f000 fb29 	bl	11dc <__malloc_unlock>
     b8a:	e695      	b.n	8b8 <_malloc_r+0x50>
     b8c:	20000138 	andcs	r0, r0, r8, lsr r1
     b90:	20000140 	andcs	r0, r0, r0, asr #2
     b94:	20000840 	andcs	r0, r0, r0, asr #16
     b98:	44a4      	add	ip, r4
     b9a:	4630      	mov	r0, r6
     b9c:	f8dc 3004 	ldr.w	r3, [ip, #4]
     ba0:	f043 0301 	orr.w	r3, r3, #1
     ba4:	f8cc 3004 	str.w	r3, [ip, #4]
     ba8:	f000 fb18 	bl	11dc <__malloc_unlock>
     bac:	3408      	adds	r4, #8
     bae:	e683      	b.n	8b8 <_malloc_r+0x50>
     bb0:	08e8      	lsrs	r0, r5, #3
     bb2:	f105 0308 	add.w	r3, r5, #8
     bb6:	e667      	b.n	888 <_malloc_r+0x20>
     bb8:	1962      	adds	r2, r4, r5
     bba:	f043 0101 	orr.w	r1, r3, #1
     bbe:	f045 0501 	orr.w	r5, r5, #1
     bc2:	6065      	str	r5, [r4, #4]
     bc4:	4630      	mov	r0, r6
     bc6:	e9c7 2204 	strd	r2, r2, [r7, #16]
     bca:	e9c2 8802 	strd	r8, r8, [r2, #8]
     bce:	6051      	str	r1, [r2, #4]
     bd0:	f844 300c 	str.w	r3, [r4, ip]
     bd4:	f000 fb02 	bl	11dc <__malloc_unlock>
     bd8:	3408      	adds	r4, #8
     bda:	e66d      	b.n	8b8 <_malloc_r+0x50>
     bdc:	ea4f 129c 	mov.w	r2, ip, lsr #6
     be0:	f102 0339 	add.w	r3, r2, #57	@ 0x39
     be4:	00db      	lsls	r3, r3, #3
     be6:	3238      	adds	r2, #56	@ 0x38
     be8:	e78c      	b.n	b04 <_malloc_r+0x29c>
     bea:	42bc      	cmp	r4, r7
     bec:	d028      	beq.n	c40 <_malloc_r+0x3d8>
     bee:	68bc      	ldr	r4, [r7, #8]
     bf0:	6860      	ldr	r0, [r4, #4]
     bf2:	e750      	b.n	a96 <_malloc_r+0x22e>
     bf4:	f103 005c 	add.w	r0, r3, #92	@ 0x5c
     bf8:	f103 0e5b 	add.w	lr, r3, #91	@ 0x5b
     bfc:	00c3      	lsls	r3, r0, #3
     bfe:	e678      	b.n	8f2 <_malloc_r+0x8a>
     c00:	f85a 3908 	ldr.w	r3, [sl], #-8
     c04:	4553      	cmp	r3, sl
     c06:	f040 80d7 	bne.w	db8 <_malloc_r+0x550>
     c0a:	f010 0f03 	tst.w	r0, #3
     c0e:	f100 30ff 	add.w	r0, r0, #4294967295	@ 0xffffffff
     c12:	d1f5      	bne.n	c00 <_malloc_r+0x398>
     c14:	687b      	ldr	r3, [r7, #4]
     c16:	ea23 030c 	bic.w	r3, r3, ip
     c1a:	607b      	str	r3, [r7, #4]
     c1c:	ea4f 0c4c 	mov.w	ip, ip, lsl #1
     c20:	459c      	cmp	ip, r3
     c22:	f63f aee5 	bhi.w	9f0 <_malloc_r+0x188>
     c26:	f1bc 0f00 	cmp.w	ip, #0
     c2a:	d104      	bne.n	c36 <_malloc_r+0x3ce>
     c2c:	e6e0      	b.n	9f0 <_malloc_r+0x188>
     c2e:	ea4f 0c4c 	mov.w	ip, ip, lsl #1
     c32:	f109 0904 	add.w	r9, r9, #4
     c36:	ea1c 0f03 	tst.w	ip, r3
     c3a:	d0f8      	beq.n	c2e <_malloc_r+0x3c6>
     c3c:	4648      	mov	r0, r9
     c3e:	e6b0      	b.n	9a2 <_malloc_r+0x13a>
     c40:	f8db 0004 	ldr.w	r0, [fp, #4]
     c44:	4440      	add	r0, r8
     c46:	f8cb 0004 	str.w	r0, [fp, #4]
     c4a:	f102 3cff 	add.w	ip, r2, #4294967295	@ 0xffffffff
     c4e:	f8d7 1408 	ldr.w	r1, [r7, #1032]	@ 0x408
     c52:	3101      	adds	r1, #1
     c54:	d06d      	beq.n	d32 <_malloc_r+0x4ca>
     c56:	9b00      	ldr	r3, [sp, #0]
     c58:	ebaa 0303 	sub.w	r3, sl, r3
     c5c:	4418      	add	r0, r3
     c5e:	f8cb 0004 	str.w	r0, [fp, #4]
     c62:	f01a 0307 	ands.w	r3, sl, #7
     c66:	9300      	str	r3, [sp, #0]
     c68:	d041      	beq.n	cee <_malloc_r+0x486>
     c6a:	f1c3 0108 	rsb	r1, r3, #8
     c6e:	448a      	add	sl, r1
     c70:	44d0      	add	r8, sl
     c72:	440a      	add	r2, r1
     c74:	ea08 010c 	and.w	r1, r8, ip
     c78:	1a52      	subs	r2, r2, r1
     c7a:	ea02 010c 	and.w	r1, r2, ip
     c7e:	4630      	mov	r0, r6
     c80:	9101      	str	r1, [sp, #4]
     c82:	f000 faad 	bl	11e0 <_sbrk_r>
     c86:	1c42      	adds	r2, r0, #1
     c88:	d06f      	beq.n	d6a <_malloc_r+0x502>
     c8a:	9901      	ldr	r1, [sp, #4]
     c8c:	eba0 000a 	sub.w	r0, r0, sl
     c90:	eb00 0801 	add.w	r8, r0, r1
     c94:	f8db 2004 	ldr.w	r2, [fp, #4]
     c98:	f8c7 a008 	str.w	sl, [r7, #8]
     c9c:	f048 0001 	orr.w	r0, r8, #1
     ca0:	4411      	add	r1, r2
     ca2:	42bc      	cmp	r4, r7
     ca4:	f8ca 0004 	str.w	r0, [sl, #4]
     ca8:	f8cb 1004 	str.w	r1, [fp, #4]
     cac:	f43f aee6 	beq.w	a7c <_malloc_r+0x214>
     cb0:	f1b9 0f0f 	cmp.w	r9, #15
     cb4:	d940      	bls.n	d38 <_malloc_r+0x4d0>
     cb6:	6862      	ldr	r2, [r4, #4]
     cb8:	f1a9 000c 	sub.w	r0, r9, #12
     cbc:	f020 0007 	bic.w	r0, r0, #7
     cc0:	f002 0201 	and.w	r2, r2, #1
     cc4:	4302      	orrs	r2, r0
     cc6:	6062      	str	r2, [r4, #4]
     cc8:	2305      	movs	r3, #5
     cca:	1822      	adds	r2, r4, r0
     ccc:	280f      	cmp	r0, #15
     cce:	e9c2 3301 	strd	r3, r3, [r2, #4]
     cd2:	d852      	bhi.n	d7a <_malloc_r+0x512>
     cd4:	f8da 0004 	ldr.w	r0, [sl, #4]
     cd8:	e6d0      	b.n	a7c <_malloc_r+0x214>
     cda:	1092      	asrs	r2, r2, #2
     cdc:	f04f 0c01 	mov.w	ip, #1
     ce0:	fa0c f202 	lsl.w	r2, ip, r2
     ce4:	ea4e 0e02 	orr.w	lr, lr, r2
     ce8:	f8c7 e004 	str.w	lr, [r7, #4]
     cec:	e719      	b.n	b22 <_malloc_r+0x2ba>
     cee:	eb0a 0108 	add.w	r1, sl, r8
     cf2:	ea01 010c 	and.w	r1, r1, ip
     cf6:	1a52      	subs	r2, r2, r1
     cf8:	ea02 010c 	and.w	r1, r2, ip
     cfc:	4630      	mov	r0, r6
     cfe:	9101      	str	r1, [sp, #4]
     d00:	f000 fa6e 	bl	11e0 <_sbrk_r>
     d04:	1c43      	adds	r3, r0, #1
     d06:	d1c0      	bne.n	c8a <_malloc_r+0x422>
     d08:	9900      	ldr	r1, [sp, #0]
     d0a:	e7c3      	b.n	c94 <_malloc_r+0x42c>
     d0c:	2a54      	cmp	r2, #84	@ 0x54
     d0e:	d817      	bhi.n	d40 <_malloc_r+0x4d8>
     d10:	ea4f 321c 	mov.w	r2, ip, lsr #12
     d14:	f102 036f 	add.w	r3, r2, #111	@ 0x6f
     d18:	00db      	lsls	r3, r3, #3
     d1a:	326e      	adds	r2, #110	@ 0x6e
     d1c:	e6f2      	b.n	b04 <_malloc_r+0x29c>
     d1e:	f5b3 7faa 	cmp.w	r3, #340	@ 0x154
     d22:	d817      	bhi.n	d54 <_malloc_r+0x4ec>
     d24:	0beb      	lsrs	r3, r5, #15
     d26:	f103 0078 	add.w	r0, r3, #120	@ 0x78
     d2a:	f103 0e77 	add.w	lr, r3, #119	@ 0x77
     d2e:	00c3      	lsls	r3, r0, #3
     d30:	e5df      	b.n	8f2 <_malloc_r+0x8a>
     d32:	f8c7 a408 	str.w	sl, [r7, #1032]	@ 0x408
     d36:	e794      	b.n	c62 <_malloc_r+0x3fa>
     d38:	2301      	movs	r3, #1
     d3a:	f8ca 3004 	str.w	r3, [sl, #4]
     d3e:	e6b2      	b.n	aa6 <_malloc_r+0x23e>
     d40:	f5b2 7faa 	cmp.w	r2, #340	@ 0x154
     d44:	d823      	bhi.n	d8e <_malloc_r+0x526>
     d46:	ea4f 32dc 	mov.w	r2, ip, lsr #15
     d4a:	f102 0378 	add.w	r3, r2, #120	@ 0x78
     d4e:	00db      	lsls	r3, r3, #3
     d50:	3277      	adds	r2, #119	@ 0x77
     d52:	e6d7      	b.n	b04 <_malloc_r+0x29c>
     d54:	f240 5254 	movw	r2, #1364	@ 0x554
     d58:	4293      	cmp	r3, r2
     d5a:	d823      	bhi.n	da4 <_malloc_r+0x53c>
     d5c:	0cab      	lsrs	r3, r5, #18
     d5e:	f103 007d 	add.w	r0, r3, #125	@ 0x7d
     d62:	f103 0e7c 	add.w	lr, r3, #124	@ 0x7c
     d66:	00c3      	lsls	r3, r0, #3
     d68:	e5c3      	b.n	8f2 <_malloc_r+0x8a>
     d6a:	9b00      	ldr	r3, [sp, #0]
     d6c:	f1a3 0208 	sub.w	r2, r3, #8
     d70:	4490      	add	r8, r2
     d72:	eba8 080a 	sub.w	r8, r8, sl
     d76:	2100      	movs	r1, #0
     d78:	e78c      	b.n	c94 <_malloc_r+0x42c>
     d7a:	f104 0108 	add.w	r1, r4, #8
     d7e:	4630      	mov	r0, r6
     d80:	f000 f878 	bl	e74 <_free_r>
     d84:	f8db 1004 	ldr.w	r1, [fp, #4]
     d88:	f8d7 a008 	ldr.w	sl, [r7, #8]
     d8c:	e7a2      	b.n	cd4 <_malloc_r+0x46c>
     d8e:	f240 5354 	movw	r3, #1364	@ 0x554
     d92:	429a      	cmp	r2, r3
     d94:	d80c      	bhi.n	db0 <_malloc_r+0x548>
     d96:	ea4f 429c 	mov.w	r2, ip, lsr #18
     d9a:	f102 037d 	add.w	r3, r2, #125	@ 0x7d
     d9e:	00db      	lsls	r3, r3, #3
     da0:	327c      	adds	r2, #124	@ 0x7c
     da2:	e6af      	b.n	b04 <_malloc_r+0x29c>
     da4:	f44f 737e 	mov.w	r3, #1016	@ 0x3f8
     da8:	207f      	movs	r0, #127	@ 0x7f
     daa:	f04f 0e7e 	mov.w	lr, #126	@ 0x7e
     dae:	e5a0      	b.n	8f2 <_malloc_r+0x8a>
     db0:	f44f 737e 	mov.w	r3, #1016	@ 0x3f8
     db4:	227e      	movs	r2, #126	@ 0x7e
     db6:	e6a5      	b.n	b04 <_malloc_r+0x29c>
     db8:	687b      	ldr	r3, [r7, #4]
     dba:	e72f      	b.n	c1c <_malloc_r+0x3b4>

00000dbc <_malloc_trim_r>:
     dbc:	e92d 43f8 	stmdb	sp!, {r3, r4, r5, r6, r7, r8, r9, lr}
     dc0:	4606      	mov	r6, r0
     dc2:	2008      	movs	r0, #8
     dc4:	4689      	mov	r9, r1
     dc6:	f000 f999 	bl	10fc <sysconf>
     dca:	f8df 80a4 	ldr.w	r8, [pc, #164]	@ e70 <_malloc_trim_r+0xb4>
     dce:	4605      	mov	r5, r0
     dd0:	4630      	mov	r0, r6
     dd2:	f000 fa01 	bl	11d8 <__malloc_lock>
     dd6:	f8d8 3008 	ldr.w	r3, [r8, #8]
     dda:	685f      	ldr	r7, [r3, #4]
     ddc:	f027 0703 	bic.w	r7, r7, #3
     de0:	f1a7 0411 	sub.w	r4, r7, #17
     de4:	eba4 0409 	sub.w	r4, r4, r9
     de8:	442c      	add	r4, r5
     dea:	fbb4 f4f5 	udiv	r4, r4, r5
     dee:	3c01      	subs	r4, #1
     df0:	fb05 f404 	mul.w	r4, r5, r4
     df4:	42a5      	cmp	r5, r4
     df6:	dc08      	bgt.n	e0a <_malloc_trim_r+0x4e>
     df8:	2100      	movs	r1, #0
     dfa:	4630      	mov	r0, r6
     dfc:	f000 f9f0 	bl	11e0 <_sbrk_r>
     e00:	f8d8 3008 	ldr.w	r3, [r8, #8]
     e04:	443b      	add	r3, r7
     e06:	4298      	cmp	r0, r3
     e08:	d005      	beq.n	e16 <_malloc_trim_r+0x5a>
     e0a:	4630      	mov	r0, r6
     e0c:	f000 f9e6 	bl	11dc <__malloc_unlock>
     e10:	2000      	movs	r0, #0
     e12:	e8bd 83f8 	ldmia.w	sp!, {r3, r4, r5, r6, r7, r8, r9, pc}
     e16:	4261      	negs	r1, r4
     e18:	4630      	mov	r0, r6
     e1a:	f000 f9e1 	bl	11e0 <_sbrk_r>
     e1e:	3001      	adds	r0, #1
     e20:	d00f      	beq.n	e42 <_malloc_trim_r+0x86>
     e22:	4a11      	ldr	r2, [pc, #68]	@ (e68 <_malloc_trim_r+0xac>)
     e24:	f8d8 3008 	ldr.w	r3, [r8, #8]
     e28:	1b3f      	subs	r7, r7, r4
     e2a:	f047 0701 	orr.w	r7, r7, #1
     e2e:	605f      	str	r7, [r3, #4]
     e30:	6813      	ldr	r3, [r2, #0]
     e32:	4630      	mov	r0, r6
     e34:	1b1b      	subs	r3, r3, r4
     e36:	6013      	str	r3, [r2, #0]
     e38:	f000 f9d0 	bl	11dc <__malloc_unlock>
     e3c:	2001      	movs	r0, #1
     e3e:	e8bd 83f8 	ldmia.w	sp!, {r3, r4, r5, r6, r7, r8, r9, pc}
     e42:	2100      	movs	r1, #0
     e44:	4630      	mov	r0, r6
     e46:	f000 f9cb 	bl	11e0 <_sbrk_r>
     e4a:	f8d8 2008 	ldr.w	r2, [r8, #8]
     e4e:	1a83      	subs	r3, r0, r2
     e50:	2b0f      	cmp	r3, #15
     e52:	ddda      	ble.n	e0a <_malloc_trim_r+0x4e>
     e54:	f043 0301 	orr.w	r3, r3, #1
     e58:	6053      	str	r3, [r2, #4]
     e5a:	4b04      	ldr	r3, [pc, #16]	@ (e6c <_malloc_trim_r+0xb0>)
     e5c:	4902      	ldr	r1, [pc, #8]	@ (e68 <_malloc_trim_r+0xac>)
     e5e:	681b      	ldr	r3, [r3, #0]
     e60:	1ac0      	subs	r0, r0, r3
     e62:	6008      	str	r0, [r1, #0]
     e64:	e7d1      	b.n	e0a <_malloc_trim_r+0x4e>
     e66:	bf00      	nop
     e68:	20000844 	andcs	r0, r0, r4, asr #16
     e6c:	20000540 	andcs	r0, r0, r0, asr #10
     e70:	20000138 	andcs	r0, r0, r8, lsr r1

00000e74 <_free_r>:
     e74:	2900      	cmp	r1, #0
     e76:	d07c      	beq.n	f72 <_free_r+0xfe>
     e78:	e92d 41f0 	stmdb	sp!, {r4, r5, r6, r7, r8, lr}
     e7c:	460c      	mov	r4, r1
     e7e:	4680      	mov	r8, r0
     e80:	f000 f9aa 	bl	11d8 <__malloc_lock>
     e84:	f854 3c04 	ldr.w	r3, [r4, #-4]
     e88:	4f75      	ldr	r7, [pc, #468]	@ (1060 <_free_r+0x1ec>)
     e8a:	f1a4 0508 	sub.w	r5, r4, #8
     e8e:	f023 0101 	bic.w	r1, r3, #1
     e92:	1868      	adds	r0, r5, r1
     e94:	68be      	ldr	r6, [r7, #8]
     e96:	6842      	ldr	r2, [r0, #4]
     e98:	4286      	cmp	r6, r0
     e9a:	f022 0203 	bic.w	r2, r2, #3
     e9e:	f000 8083 	beq.w	fa8 <_free_r+0x134>
     ea2:	07de      	lsls	r6, r3, #31
     ea4:	6042      	str	r2, [r0, #4]
     ea6:	eb00 0c02 	add.w	ip, r0, r2
     eaa:	d433      	bmi.n	f14 <_free_r+0xa0>
     eac:	f854 4c08 	ldr.w	r4, [r4, #-8]
     eb0:	f8dc 3004 	ldr.w	r3, [ip, #4]
     eb4:	1b2d      	subs	r5, r5, r4
     eb6:	4421      	add	r1, r4
     eb8:	68ac      	ldr	r4, [r5, #8]
     eba:	f107 0c08 	add.w	ip, r7, #8
     ebe:	4564      	cmp	r4, ip
     ec0:	f003 0301 	and.w	r3, r3, #1
     ec4:	d064      	beq.n	f90 <_free_r+0x11c>
     ec6:	f8d5 e00c 	ldr.w	lr, [r5, #12]
     eca:	f8c4 e00c 	str.w	lr, [r4, #12]
     ece:	f8ce 4008 	str.w	r4, [lr, #8]
     ed2:	2b00      	cmp	r3, #0
     ed4:	f000 8081 	beq.w	fda <_free_r+0x166>
     ed8:	f041 0301 	orr.w	r3, r1, #1
     edc:	606b      	str	r3, [r5, #4]
     ede:	6001      	str	r1, [r0, #0]
     ee0:	f5b1 7f00 	cmp.w	r1, #512	@ 0x200
     ee4:	d222      	bcs.n	f2c <_free_r+0xb8>
     ee6:	6878      	ldr	r0, [r7, #4]
     ee8:	08cb      	lsrs	r3, r1, #3
     eea:	2201      	movs	r2, #1
     eec:	0949      	lsrs	r1, r1, #5
     eee:	3301      	adds	r3, #1
     ef0:	408a      	lsls	r2, r1
     ef2:	4302      	orrs	r2, r0
     ef4:	f857 1033 	ldr.w	r1, [r7, r3, lsl #3]
     ef8:	607a      	str	r2, [r7, #4]
     efa:	eb07 02c3 	add.w	r2, r7, r3, lsl #3
     efe:	3a08      	subs	r2, #8
     f00:	e9c5 1202 	strd	r1, r2, [r5, #8]
     f04:	f847 5033 	str.w	r5, [r7, r3, lsl #3]
     f08:	60cd      	str	r5, [r1, #12]
     f0a:	4640      	mov	r0, r8
     f0c:	e8bd 41f0 	ldmia.w	sp!, {r4, r5, r6, r7, r8, lr}
     f10:	f000 b964 	b.w	11dc <__malloc_unlock>
     f14:	f8dc 3004 	ldr.w	r3, [ip, #4]
     f18:	07db      	lsls	r3, r3, #31
     f1a:	d52b      	bpl.n	f74 <_free_r+0x100>
     f1c:	f041 0301 	orr.w	r3, r1, #1
     f20:	f5b1 7f00 	cmp.w	r1, #512	@ 0x200
     f24:	f844 3c04 	str.w	r3, [r4, #-4]
     f28:	6001      	str	r1, [r0, #0]
     f2a:	d3dc      	bcc.n	ee6 <_free_r+0x72>
     f2c:	f5b1 6f20 	cmp.w	r1, #2560	@ 0xa00
     f30:	ea4f 2351 	mov.w	r3, r1, lsr #9
     f34:	d253      	bcs.n	fde <_free_r+0x16a>
     f36:	098b      	lsrs	r3, r1, #6
     f38:	f103 0039 	add.w	r0, r3, #57	@ 0x39
     f3c:	f103 0238 	add.w	r2, r3, #56	@ 0x38
     f40:	00c3      	lsls	r3, r0, #3
     f42:	18f8      	adds	r0, r7, r3
     f44:	58fb      	ldr	r3, [r7, r3]
     f46:	3808      	subs	r0, #8
     f48:	4298      	cmp	r0, r3
     f4a:	d103      	bne.n	f54 <_free_r+0xe0>
     f4c:	e061      	b.n	1012 <_free_r+0x19e>
     f4e:	689b      	ldr	r3, [r3, #8]
     f50:	4298      	cmp	r0, r3
     f52:	d004      	beq.n	f5e <_free_r+0xea>
     f54:	685a      	ldr	r2, [r3, #4]
     f56:	f022 0203 	bic.w	r2, r2, #3
     f5a:	428a      	cmp	r2, r1
     f5c:	d8f7      	bhi.n	f4e <_free_r+0xda>
     f5e:	68d8      	ldr	r0, [r3, #12]
     f60:	e9c5 3002 	strd	r3, r0, [r5, #8]
     f64:	6085      	str	r5, [r0, #8]
     f66:	60dd      	str	r5, [r3, #12]
     f68:	4640      	mov	r0, r8
     f6a:	e8bd 41f0 	ldmia.w	sp!, {r4, r5, r6, r7, r8, lr}
     f6e:	f000 b935 	b.w	11dc <__malloc_unlock>
     f72:	4770      	bx	lr
     f74:	4411      	add	r1, r2
     f76:	f107 0c08 	add.w	ip, r7, #8
     f7a:	6883      	ldr	r3, [r0, #8]
     f7c:	4563      	cmp	r3, ip
     f7e:	d03f      	beq.n	1000 <_free_r+0x18c>
     f80:	68c2      	ldr	r2, [r0, #12]
     f82:	60da      	str	r2, [r3, #12]
     f84:	6093      	str	r3, [r2, #8]
     f86:	f041 0301 	orr.w	r3, r1, #1
     f8a:	606b      	str	r3, [r5, #4]
     f8c:	5069      	str	r1, [r5, r1]
     f8e:	e7a7      	b.n	ee0 <_free_r+0x6c>
     f90:	2b00      	cmp	r3, #0
     f92:	d15f      	bne.n	1054 <_free_r+0x1e0>
     f94:	440a      	add	r2, r1
     f96:	e9d0 1302 	ldrd	r1, r3, [r0, #8]
     f9a:	60cb      	str	r3, [r1, #12]
     f9c:	6099      	str	r1, [r3, #8]
     f9e:	f042 0301 	orr.w	r3, r2, #1
     fa2:	606b      	str	r3, [r5, #4]
     fa4:	50aa      	str	r2, [r5, r2]
     fa6:	e7b0      	b.n	f0a <_free_r+0x96>
     fa8:	07db      	lsls	r3, r3, #31
     faa:	440a      	add	r2, r1
     fac:	d407      	bmi.n	fbe <_free_r+0x14a>
     fae:	f854 3c08 	ldr.w	r3, [r4, #-8]
     fb2:	1aed      	subs	r5, r5, r3
     fb4:	441a      	add	r2, r3
     fb6:	e9d5 1302 	ldrd	r1, r3, [r5, #8]
     fba:	60cb      	str	r3, [r1, #12]
     fbc:	6099      	str	r1, [r3, #8]
     fbe:	f042 0301 	orr.w	r3, r2, #1
     fc2:	606b      	str	r3, [r5, #4]
     fc4:	4b27      	ldr	r3, [pc, #156]	@ (1064 <_free_r+0x1f0>)
     fc6:	60bd      	str	r5, [r7, #8]
     fc8:	681b      	ldr	r3, [r3, #0]
     fca:	4293      	cmp	r3, r2
     fcc:	d89d      	bhi.n	f0a <_free_r+0x96>
     fce:	4b26      	ldr	r3, [pc, #152]	@ (1068 <_free_r+0x1f4>)
     fd0:	4640      	mov	r0, r8
     fd2:	6819      	ldr	r1, [r3, #0]
     fd4:	f7ff fef2 	bl	dbc <_malloc_trim_r>
     fd8:	e797      	b.n	f0a <_free_r+0x96>
     fda:	4411      	add	r1, r2
     fdc:	e7cd      	b.n	f7a <_free_r+0x106>
     fde:	2b14      	cmp	r3, #20
     fe0:	d908      	bls.n	ff4 <_free_r+0x180>
     fe2:	2b54      	cmp	r3, #84	@ 0x54
     fe4:	d81d      	bhi.n	1022 <_free_r+0x1ae>
     fe6:	0b0b      	lsrs	r3, r1, #12
     fe8:	f103 006f 	add.w	r0, r3, #111	@ 0x6f
     fec:	f103 026e 	add.w	r2, r3, #110	@ 0x6e
     ff0:	00c3      	lsls	r3, r0, #3
     ff2:	e7a6      	b.n	f42 <_free_r+0xce>
     ff4:	f103 005c 	add.w	r0, r3, #92	@ 0x5c
     ff8:	f103 025b 	add.w	r2, r3, #91	@ 0x5b
     ffc:	00c3      	lsls	r3, r0, #3
     ffe:	e7a0      	b.n	f42 <_free_r+0xce>
    1000:	f041 0301 	orr.w	r3, r1, #1
    1004:	e9c7 5504 	strd	r5, r5, [r7, #16]
    1008:	e9c5 cc02 	strd	ip, ip, [r5, #8]
    100c:	606b      	str	r3, [r5, #4]
    100e:	5069      	str	r1, [r5, r1]
    1010:	e77b      	b.n	f0a <_free_r+0x96>
    1012:	6879      	ldr	r1, [r7, #4]
    1014:	1092      	asrs	r2, r2, #2
    1016:	2401      	movs	r4, #1
    1018:	fa04 f202 	lsl.w	r2, r4, r2
    101c:	430a      	orrs	r2, r1
    101e:	607a      	str	r2, [r7, #4]
    1020:	e79e      	b.n	f60 <_free_r+0xec>
    1022:	f5b3 7faa 	cmp.w	r3, #340	@ 0x154
    1026:	d806      	bhi.n	1036 <_free_r+0x1c2>
    1028:	0bcb      	lsrs	r3, r1, #15
    102a:	f103 0078 	add.w	r0, r3, #120	@ 0x78
    102e:	f103 0277 	add.w	r2, r3, #119	@ 0x77
    1032:	00c3      	lsls	r3, r0, #3
    1034:	e785      	b.n	f42 <_free_r+0xce>
    1036:	f240 5254 	movw	r2, #1364	@ 0x554
    103a:	4293      	cmp	r3, r2
    103c:	d806      	bhi.n	104c <_free_r+0x1d8>
    103e:	0c8b      	lsrs	r3, r1, #18
    1040:	f103 007d 	add.w	r0, r3, #125	@ 0x7d
    1044:	f103 027c 	add.w	r2, r3, #124	@ 0x7c
    1048:	00c3      	lsls	r3, r0, #3
    104a:	e77a      	b.n	f42 <_free_r+0xce>
    104c:	f44f 737e 	mov.w	r3, #1016	@ 0x3f8
    1050:	227e      	movs	r2, #126	@ 0x7e
    1052:	e776      	b.n	f42 <_free_r+0xce>
    1054:	f041 0301 	orr.w	r3, r1, #1
    1058:	606b      	str	r3, [r5, #4]
    105a:	6001      	str	r1, [r0, #0]
    105c:	e755      	b.n	f0a <_free_r+0x96>
    105e:	bf00      	nop
    1060:	20000138 	andcs	r0, r0, r8, lsr r1
    1064:	20000544 	andcs	r0, r0, r4, asr #10
    1068:	20000840 	andcs	r0, r0, r0, asr #16

0000106c <_fclose_r>:
    106c:	b570      	push	{r4, r5, r6, lr}
    106e:	b139      	cbz	r1, 1080 <_fclose_r+0x14>
    1070:	4606      	mov	r6, r0
    1072:	460c      	mov	r4, r1
    1074:	b108      	cbz	r0, 107a <_fclose_r+0xe>
    1076:	6b43      	ldr	r3, [r0, #52]	@ 0x34
    1078:	b383      	cbz	r3, 10dc <_fclose_r+0x70>
    107a:	f9b4 300c 	ldrsh.w	r3, [r4, #12]
    107e:	b913      	cbnz	r3, 1086 <_fclose_r+0x1a>
    1080:	2500      	movs	r5, #0
    1082:	4628      	mov	r0, r5
    1084:	bd70      	pop	{r4, r5, r6, pc}
    1086:	4621      	mov	r1, r4
    1088:	4630      	mov	r0, r6
    108a:	f000 f8cd 	bl	1228 <__sflush_r>
    108e:	6ae3      	ldr	r3, [r4, #44]	@ 0x2c
    1090:	4605      	mov	r5, r0
    1092:	b133      	cbz	r3, 10a2 <_fclose_r+0x36>
    1094:	69e1      	ldr	r1, [r4, #28]
    1096:	4630      	mov	r0, r6
    1098:	4798      	blx	r3
    109a:	2800      	cmp	r0, #0
    109c:	bfb8      	it	lt
    109e:	f04f 35ff 	movlt.w	r5, #4294967295	@ 0xffffffff
    10a2:	89a3      	ldrh	r3, [r4, #12]
    10a4:	061b      	lsls	r3, r3, #24
    10a6:	d41c      	bmi.n	10e2 <_fclose_r+0x76>
    10a8:	6b21      	ldr	r1, [r4, #48]	@ 0x30
    10aa:	b141      	cbz	r1, 10be <_fclose_r+0x52>
    10ac:	f104 0340 	add.w	r3, r4, #64	@ 0x40
    10b0:	4299      	cmp	r1, r3
    10b2:	d002      	beq.n	10ba <_fclose_r+0x4e>
    10b4:	4630      	mov	r0, r6
    10b6:	f7ff fedd 	bl	e74 <_free_r>
    10ba:	2300      	movs	r3, #0
    10bc:	6323      	str	r3, [r4, #48]	@ 0x30
    10be:	6c61      	ldr	r1, [r4, #68]	@ 0x44
    10c0:	b121      	cbz	r1, 10cc <_fclose_r+0x60>
    10c2:	4630      	mov	r0, r6
    10c4:	f7ff fed6 	bl	e74 <_free_r>
    10c8:	2300      	movs	r3, #0
    10ca:	6463      	str	r3, [r4, #68]	@ 0x44
    10cc:	f7ff fb92 	bl	7f4 <__sfp_lock_acquire>
    10d0:	2300      	movs	r3, #0
    10d2:	81a3      	strh	r3, [r4, #12]
    10d4:	f7ff fb90 	bl	7f8 <__sfp_lock_release>
    10d8:	4628      	mov	r0, r5
    10da:	bd70      	pop	{r4, r5, r6, pc}
    10dc:	f7ff fb7a 	bl	7d4 <__sinit>
    10e0:	e7cb      	b.n	107a <_fclose_r+0xe>
    10e2:	6921      	ldr	r1, [r4, #16]
    10e4:	4630      	mov	r0, r6
    10e6:	f7ff fec5 	bl	e74 <_free_r>
    10ea:	e7dd      	b.n	10a8 <_fclose_r+0x3c>

000010ec <fclose>:
    10ec:	4b02      	ldr	r3, [pc, #8]	@ (10f8 <fclose+0xc>)
    10ee:	4601      	mov	r1, r0
    10f0:	6818      	ldr	r0, [r3, #0]
    10f2:	f7ff bfbb 	b.w	106c <_fclose_r>
    10f6:	bf00      	nop
    10f8:	20000010 	andcs	r0, r0, r0, lsl r0

000010fc <sysconf>:
    10fc:	2808      	cmp	r0, #8
    10fe:	d102      	bne.n	1106 <sysconf+0xa>
    1100:	f44f 5080 	mov.w	r0, #4096	@ 0x1000
    1104:	4770      	bx	lr
    1106:	b508      	push	{r3, lr}
    1108:	f000 f964 	bl	13d4 <__errno>
    110c:	2316      	movs	r3, #22
    110e:	6003      	str	r3, [r0, #0]
    1110:	f04f 30ff 	mov.w	r0, #4294967295	@ 0xffffffff
    1114:	bd08      	pop	{r3, pc}
    1116:	bf00      	nop

00001118 <__sread>:
    1118:	b510      	push	{r4, lr}
    111a:	460c      	mov	r4, r1
    111c:	f9b1 100e 	ldrsh.w	r1, [r1, #14]
    1120:	f000 f95e 	bl	13e0 <_read_r>
    1124:	2800      	cmp	r0, #0
    1126:	db03      	blt.n	1130 <__sread+0x18>
    1128:	6d23      	ldr	r3, [r4, #80]	@ 0x50
    112a:	4403      	add	r3, r0
    112c:	6523      	str	r3, [r4, #80]	@ 0x50
    112e:	bd10      	pop	{r4, pc}
    1130:	89a3      	ldrh	r3, [r4, #12]
    1132:	f423 5380 	bic.w	r3, r3, #4096	@ 0x1000
    1136:	81a3      	strh	r3, [r4, #12]
    1138:	bd10      	pop	{r4, pc}
    113a:	bf00      	nop

0000113c <__seofread>:
    113c:	2000      	movs	r0, #0
    113e:	4770      	bx	lr

00001140 <__swrite>:
    1140:	e92d 41f0 	stmdb	sp!, {r4, r5, r6, r7, r8, lr}
    1144:	460c      	mov	r4, r1
    1146:	f9b1 100c 	ldrsh.w	r1, [r1, #12]
    114a:	461f      	mov	r7, r3
    114c:	05cb      	lsls	r3, r1, #23
    114e:	4605      	mov	r5, r0
    1150:	4616      	mov	r6, r2
    1152:	d40b      	bmi.n	116c <__swrite+0x2c>
    1154:	f421 5180 	bic.w	r1, r1, #4096	@ 0x1000
    1158:	81a1      	strh	r1, [r4, #12]
    115a:	463b      	mov	r3, r7
    115c:	f9b4 100e 	ldrsh.w	r1, [r4, #14]
    1160:	4632      	mov	r2, r6
    1162:	4628      	mov	r0, r5
    1164:	e8bd 41f0 	ldmia.w	sp!, {r4, r5, r6, r7, r8, lr}
    1168:	f000 b820 	b.w	11ac <_write_r>
    116c:	f9b4 100e 	ldrsh.w	r1, [r4, #14]
    1170:	2302      	movs	r3, #2
    1172:	2200      	movs	r2, #0
    1174:	f000 f94a 	bl	140c <_lseek_r>
    1178:	f9b4 100c 	ldrsh.w	r1, [r4, #12]
    117c:	e7ea      	b.n	1154 <__swrite+0x14>
    117e:	bf00      	nop

00001180 <__sseek>:
    1180:	b510      	push	{r4, lr}
    1182:	460c      	mov	r4, r1
    1184:	f9b1 100e 	ldrsh.w	r1, [r1, #14]
    1188:	f000 f940 	bl	140c <_lseek_r>
    118c:	f9b4 300c 	ldrsh.w	r3, [r4, #12]
    1190:	1c42      	adds	r2, r0, #1
    1192:	bf0e      	itee	eq
    1194:	f423 5380 	biceq.w	r3, r3, #4096	@ 0x1000
    1198:	f443 5380 	orrne.w	r3, r3, #4096	@ 0x1000
    119c:	6520      	strne	r0, [r4, #80]	@ 0x50
    119e:	81a3      	strh	r3, [r4, #12]
    11a0:	bd10      	pop	{r4, pc}
    11a2:	bf00      	nop

000011a4 <__sclose>:
    11a4:	f9b1 100e 	ldrsh.w	r1, [r1, #14]
    11a8:	f000 b82c 	b.w	1204 <_close_r>

000011ac <_write_r>:
    11ac:	b538      	push	{r3, r4, r5, lr}
    11ae:	460c      	mov	r4, r1
    11b0:	4d08      	ldr	r5, [pc, #32]	@ (11d4 <_write_r+0x28>)
    11b2:	4684      	mov	ip, r0
    11b4:	4611      	mov	r1, r2
    11b6:	4620      	mov	r0, r4
    11b8:	461a      	mov	r2, r3
    11ba:	2300      	movs	r3, #0
    11bc:	602b      	str	r3, [r5, #0]
    11be:	4664      	mov	r4, ip
    11c0:	f000 f996 	bl	14f0 <_write>
    11c4:	1c43      	adds	r3, r0, #1
    11c6:	d000      	beq.n	11ca <_write_r+0x1e>
    11c8:	bd38      	pop	{r3, r4, r5, pc}
    11ca:	682b      	ldr	r3, [r5, #0]
    11cc:	2b00      	cmp	r3, #0
    11ce:	d0fb      	beq.n	11c8 <_write_r+0x1c>
    11d0:	6023      	str	r3, [r4, #0]
    11d2:	bd38      	pop	{r3, r4, r5, pc}
    11d4:	20000874 	andcs	r0, r0, r4, ror r8

000011d8 <__malloc_lock>:
    11d8:	4770      	bx	lr
    11da:	bf00      	nop

000011dc <__malloc_unlock>:
    11dc:	4770      	bx	lr
    11de:	bf00      	nop

000011e0 <_sbrk_r>:
    11e0:	b538      	push	{r3, r4, r5, lr}
    11e2:	4d07      	ldr	r5, [pc, #28]	@ (1200 <_sbrk_r+0x20>)
    11e4:	2200      	movs	r2, #0
    11e6:	4604      	mov	r4, r0
    11e8:	4608      	mov	r0, r1
    11ea:	602a      	str	r2, [r5, #0]
    11ec:	f000 f972 	bl	14d4 <_sbrk>
    11f0:	1c43      	adds	r3, r0, #1
    11f2:	d000      	beq.n	11f6 <_sbrk_r+0x16>
    11f4:	bd38      	pop	{r3, r4, r5, pc}
    11f6:	682b      	ldr	r3, [r5, #0]
    11f8:	2b00      	cmp	r3, #0
    11fa:	d0fb      	beq.n	11f4 <_sbrk_r+0x14>
    11fc:	6023      	str	r3, [r4, #0]
    11fe:	bd38      	pop	{r3, r4, r5, pc}
    1200:	20000874 	andcs	r0, r0, r4, ror r8

00001204 <_close_r>:
    1204:	b538      	push	{r3, r4, r5, lr}
    1206:	4d07      	ldr	r5, [pc, #28]	@ (1224 <_close_r+0x20>)
    1208:	2200      	movs	r2, #0
    120a:	4604      	mov	r4, r0
    120c:	4608      	mov	r0, r1
    120e:	602a      	str	r2, [r5, #0]
    1210:	f000 f948 	bl	14a4 <_close>
    1214:	1c43      	adds	r3, r0, #1
    1216:	d000      	beq.n	121a <_close_r+0x16>
    1218:	bd38      	pop	{r3, r4, r5, pc}
    121a:	682b      	ldr	r3, [r5, #0]
    121c:	2b00      	cmp	r3, #0
    121e:	d0fb      	beq.n	1218 <_close_r+0x14>
    1220:	6023      	str	r3, [r4, #0]
    1222:	bd38      	pop	{r3, r4, r5, pc}
    1224:	20000874 	andcs	r0, r0, r4, ror r8

00001228 <__sflush_r>:
    1228:	f9b1 200c 	ldrsh.w	r2, [r1, #12]
    122c:	e92d 41f0 	stmdb	sp!, {r4, r5, r6, r7, r8, lr}
    1230:	0716      	lsls	r6, r2, #28
    1232:	460c      	mov	r4, r1
    1234:	4680      	mov	r8, r0
    1236:	d44e      	bmi.n	12d6 <__sflush_r+0xae>
    1238:	6849      	ldr	r1, [r1, #4]
    123a:	f442 6300 	orr.w	r3, r2, #2048	@ 0x800
    123e:	2900      	cmp	r1, #0
    1240:	81a3      	strh	r3, [r4, #12]
    1242:	dd63      	ble.n	130c <__sflush_r+0xe4>
    1244:	6aa5      	ldr	r5, [r4, #40]	@ 0x28
    1246:	2d00      	cmp	r5, #0
    1248:	d042      	beq.n	12d0 <__sflush_r+0xa8>
    124a:	2100      	movs	r1, #0
    124c:	f412 5280 	ands.w	r2, r2, #4096	@ 0x1000
    1250:	f8d8 6000 	ldr.w	r6, [r8]
    1254:	f8c8 1000 	str.w	r1, [r8]
    1258:	69e1      	ldr	r1, [r4, #28]
    125a:	d164      	bne.n	1326 <__sflush_r+0xfe>
    125c:	2301      	movs	r3, #1
    125e:	4640      	mov	r0, r8
    1260:	47a8      	blx	r5
    1262:	1c45      	adds	r5, r0, #1
    1264:	4602      	mov	r2, r0
    1266:	d06e      	beq.n	1346 <__sflush_r+0x11e>
    1268:	f9b4 300c 	ldrsh.w	r3, [r4, #12]
    126c:	6aa5      	ldr	r5, [r4, #40]	@ 0x28
    126e:	69e1      	ldr	r1, [r4, #28]
    1270:	0758      	lsls	r0, r3, #29
    1272:	d505      	bpl.n	1280 <__sflush_r+0x58>
    1274:	6863      	ldr	r3, [r4, #4]
    1276:	1ad2      	subs	r2, r2, r3
    1278:	6b23      	ldr	r3, [r4, #48]	@ 0x30
    127a:	b10b      	cbz	r3, 1280 <__sflush_r+0x58>
    127c:	6be3      	ldr	r3, [r4, #60]	@ 0x3c
    127e:	1ad2      	subs	r2, r2, r3
    1280:	2300      	movs	r3, #0
    1282:	4640      	mov	r0, r8
    1284:	47a8      	blx	r5
    1286:	1c43      	adds	r3, r0, #1
    1288:	d14f      	bne.n	132a <__sflush_r+0x102>
    128a:	f8d8 1000 	ldr.w	r1, [r8]
    128e:	f9b4 300c 	ldrsh.w	r3, [r4, #12]
    1292:	291d      	cmp	r1, #29
    1294:	d840      	bhi.n	1318 <__sflush_r+0xf0>
    1296:	4a31      	ldr	r2, [pc, #196]	@ (135c <__sflush_r+0x134>)
    1298:	40ca      	lsrs	r2, r1
    129a:	07d7      	lsls	r7, r2, #31
    129c:	d53c      	bpl.n	1318 <__sflush_r+0xf0>
    129e:	6922      	ldr	r2, [r4, #16]
    12a0:	6022      	str	r2, [r4, #0]
    12a2:	f423 6200 	bic.w	r2, r3, #2048	@ 0x800
    12a6:	81a2      	strh	r2, [r4, #12]
    12a8:	04dd      	lsls	r5, r3, #19
    12aa:	f04f 0200 	mov.w	r2, #0
    12ae:	6062      	str	r2, [r4, #4]
    12b0:	d501      	bpl.n	12b6 <__sflush_r+0x8e>
    12b2:	2900      	cmp	r1, #0
    12b4:	d045      	beq.n	1342 <__sflush_r+0x11a>
    12b6:	6b21      	ldr	r1, [r4, #48]	@ 0x30
    12b8:	f8c8 6000 	str.w	r6, [r8]
    12bc:	b141      	cbz	r1, 12d0 <__sflush_r+0xa8>
    12be:	f104 0340 	add.w	r3, r4, #64	@ 0x40
    12c2:	4299      	cmp	r1, r3
    12c4:	d002      	beq.n	12cc <__sflush_r+0xa4>
    12c6:	4640      	mov	r0, r8
    12c8:	f7ff fdd4 	bl	e74 <_free_r>
    12cc:	2300      	movs	r3, #0
    12ce:	6323      	str	r3, [r4, #48]	@ 0x30
    12d0:	2000      	movs	r0, #0
    12d2:	e8bd 81f0 	ldmia.w	sp!, {r4, r5, r6, r7, r8, pc}
    12d6:	690e      	ldr	r6, [r1, #16]
    12d8:	2e00      	cmp	r6, #0
    12da:	d0f9      	beq.n	12d0 <__sflush_r+0xa8>
    12dc:	680d      	ldr	r5, [r1, #0]
    12de:	600e      	str	r6, [r1, #0]
    12e0:	0792      	lsls	r2, r2, #30
    12e2:	bf0c      	ite	eq
    12e4:	694b      	ldreq	r3, [r1, #20]
    12e6:	2300      	movne	r3, #0
    12e8:	1bad      	subs	r5, r5, r6
    12ea:	608b      	str	r3, [r1, #8]
    12ec:	e00b      	b.n	1306 <__sflush_r+0xde>
    12ee:	462b      	mov	r3, r5
    12f0:	4632      	mov	r2, r6
    12f2:	69e1      	ldr	r1, [r4, #28]
    12f4:	6a67      	ldr	r7, [r4, #36]	@ 0x24
    12f6:	4640      	mov	r0, r8
    12f8:	47b8      	blx	r7
    12fa:	f1b0 0c00 	subs.w	ip, r0, #0
    12fe:	eba5 050c 	sub.w	r5, r5, ip
    1302:	4466      	add	r6, ip
    1304:	dd06      	ble.n	1314 <__sflush_r+0xec>
    1306:	2d00      	cmp	r5, #0
    1308:	dcf1      	bgt.n	12ee <__sflush_r+0xc6>
    130a:	e7e1      	b.n	12d0 <__sflush_r+0xa8>
    130c:	6be1      	ldr	r1, [r4, #60]	@ 0x3c
    130e:	2900      	cmp	r1, #0
    1310:	dc98      	bgt.n	1244 <__sflush_r+0x1c>
    1312:	e7dd      	b.n	12d0 <__sflush_r+0xa8>
    1314:	f9b4 300c 	ldrsh.w	r3, [r4, #12]
    1318:	f043 0340 	orr.w	r3, r3, #64	@ 0x40
    131c:	81a3      	strh	r3, [r4, #12]
    131e:	f04f 30ff 	mov.w	r0, #4294967295	@ 0xffffffff
    1322:	e8bd 81f0 	ldmia.w	sp!, {r4, r5, r6, r7, r8, pc}
    1326:	6d22      	ldr	r2, [r4, #80]	@ 0x50
    1328:	e7a2      	b.n	1270 <__sflush_r+0x48>
    132a:	f9b4 300c 	ldrsh.w	r3, [r4, #12]
    132e:	6922      	ldr	r2, [r4, #16]
    1330:	6022      	str	r2, [r4, #0]
    1332:	f423 6200 	bic.w	r2, r3, #2048	@ 0x800
    1336:	81a2      	strh	r2, [r4, #12]
    1338:	04db      	lsls	r3, r3, #19
    133a:	f04f 0200 	mov.w	r2, #0
    133e:	6062      	str	r2, [r4, #4]
    1340:	d5b9      	bpl.n	12b6 <__sflush_r+0x8e>
    1342:	6520      	str	r0, [r4, #80]	@ 0x50
    1344:	e7b7      	b.n	12b6 <__sflush_r+0x8e>
    1346:	f8d8 3000 	ldr.w	r3, [r8]
    134a:	2b00      	cmp	r3, #0
    134c:	d08c      	beq.n	1268 <__sflush_r+0x40>
    134e:	2b1d      	cmp	r3, #29
    1350:	d001      	beq.n	1356 <__sflush_r+0x12e>
    1352:	2b16      	cmp	r3, #22
    1354:	d1de      	bne.n	1314 <__sflush_r+0xec>
    1356:	f8c8 6000 	str.w	r6, [r8]
    135a:	e7b9      	b.n	12d0 <__sflush_r+0xa8>
    135c:	20400001 	subcs	r0, r0, r1

00001360 <_fflush_r>:
    1360:	b510      	push	{r4, lr}
    1362:	4604      	mov	r4, r0
    1364:	b082      	sub	sp, #8
    1366:	b108      	cbz	r0, 136c <_fflush_r+0xc>
    1368:	6b43      	ldr	r3, [r0, #52]	@ 0x34
    136a:	b153      	cbz	r3, 1382 <_fflush_r+0x22>
    136c:	f9b1 000c 	ldrsh.w	r0, [r1, #12]
    1370:	b908      	cbnz	r0, 1376 <_fflush_r+0x16>
    1372:	b002      	add	sp, #8
    1374:	bd10      	pop	{r4, pc}
    1376:	4620      	mov	r0, r4
    1378:	b002      	add	sp, #8
    137a:	e8bd 4010 	ldmia.w	sp!, {r4, lr}
    137e:	f7ff bf53 	b.w	1228 <__sflush_r>
    1382:	9101      	str	r1, [sp, #4]
    1384:	f7ff fa26 	bl	7d4 <__sinit>
    1388:	9901      	ldr	r1, [sp, #4]
    138a:	e7ef      	b.n	136c <_fflush_r+0xc>

0000138c <fflush>:
    138c:	b1a0      	cbz	r0, 13b8 <fflush+0x2c>
    138e:	b538      	push	{r3, r4, r5, lr}
    1390:	4b0c      	ldr	r3, [pc, #48]	@ (13c4 <fflush+0x38>)
    1392:	681d      	ldr	r5, [r3, #0]
    1394:	4604      	mov	r4, r0
    1396:	b10d      	cbz	r5, 139c <fflush+0x10>
    1398:	6b6b      	ldr	r3, [r5, #52]	@ 0x34
    139a:	b14b      	cbz	r3, 13b0 <fflush+0x24>
    139c:	f9b4 000c 	ldrsh.w	r0, [r4, #12]
    13a0:	b900      	cbnz	r0, 13a4 <fflush+0x18>
    13a2:	bd38      	pop	{r3, r4, r5, pc}
    13a4:	4621      	mov	r1, r4
    13a6:	4628      	mov	r0, r5
    13a8:	e8bd 4038 	ldmia.w	sp!, {r3, r4, r5, lr}
    13ac:	f7ff bf3c 	b.w	1228 <__sflush_r>
    13b0:	4628      	mov	r0, r5
    13b2:	f7ff fa0f 	bl	7d4 <__sinit>
    13b6:	e7f1      	b.n	139c <fflush+0x10>
    13b8:	4a03      	ldr	r2, [pc, #12]	@ (13c8 <fflush+0x3c>)
    13ba:	4904      	ldr	r1, [pc, #16]	@ (13cc <fflush+0x40>)
    13bc:	4804      	ldr	r0, [pc, #16]	@ (13d0 <fflush+0x44>)
    13be:	f7ff ba31 	b.w	824 <_fwalk_sglue>
    13c2:	bf00      	nop
    13c4:	20000010 	andcs	r0, r0, r0, lsl r0
    13c8:	20000004 	andcs	r0, r0, r4
    13cc:	00001361 	andeq	r1, r0, r1, ror #6
    13d0:	20000018 	andcs	r0, r0, r8, lsl r0

000013d4 <__errno>:
    13d4:	4b01      	ldr	r3, [pc, #4]	@ (13dc <__errno+0x8>)
    13d6:	6818      	ldr	r0, [r3, #0]
    13d8:	4770      	bx	lr
    13da:	bf00      	nop
    13dc:	20000010 	andcs	r0, r0, r0, lsl r0

000013e0 <_read_r>:
    13e0:	b538      	push	{r3, r4, r5, lr}
    13e2:	460c      	mov	r4, r1
    13e4:	4d08      	ldr	r5, [pc, #32]	@ (1408 <_read_r+0x28>)
    13e6:	4684      	mov	ip, r0
    13e8:	4611      	mov	r1, r2
    13ea:	4620      	mov	r0, r4
    13ec:	461a      	mov	r2, r3
    13ee:	2300      	movs	r3, #0
    13f0:	602b      	str	r3, [r5, #0]
    13f2:	4664      	mov	r4, ip
    13f4:	f000 f866 	bl	14c4 <_read>
    13f8:	1c43      	adds	r3, r0, #1
    13fa:	d000      	beq.n	13fe <_read_r+0x1e>
    13fc:	bd38      	pop	{r3, r4, r5, pc}
    13fe:	682b      	ldr	r3, [r5, #0]
    1400:	2b00      	cmp	r3, #0
    1402:	d0fb      	beq.n	13fc <_read_r+0x1c>
    1404:	6023      	str	r3, [r4, #0]
    1406:	bd38      	pop	{r3, r4, r5, pc}
    1408:	20000874 	andcs	r0, r0, r4, ror r8

0000140c <_lseek_r>:
    140c:	b538      	push	{r3, r4, r5, lr}
    140e:	460c      	mov	r4, r1
    1410:	4d08      	ldr	r5, [pc, #32]	@ (1434 <_lseek_r+0x28>)
    1412:	4684      	mov	ip, r0
    1414:	4611      	mov	r1, r2
    1416:	4620      	mov	r0, r4
    1418:	461a      	mov	r2, r3
    141a:	2300      	movs	r3, #0
    141c:	602b      	str	r3, [r5, #0]
    141e:	4664      	mov	r4, ip
    1420:	f000 f848 	bl	14b4 <_lseek>
    1424:	1c43      	adds	r3, r0, #1
    1426:	d000      	beq.n	142a <_lseek_r+0x1e>
    1428:	bd38      	pop	{r3, r4, r5, pc}
    142a:	682b      	ldr	r3, [r5, #0]
    142c:	2b00      	cmp	r3, #0
    142e:	d0fb      	beq.n	1428 <_lseek_r+0x1c>
    1430:	6023      	str	r3, [r4, #0]
    1432:	bd38      	pop	{r3, r4, r5, pc}
    1434:	20000874 	andcs	r0, r0, r4, ror r8

00001438 <_reclaim_reent>:
    1438:	4b19      	ldr	r3, [pc, #100]	@ (14a0 <_reclaim_reent+0x68>)
    143a:	681b      	ldr	r3, [r3, #0]
    143c:	4283      	cmp	r3, r0
    143e:	d02e      	beq.n	149e <_reclaim_reent+0x66>
    1440:	6c41      	ldr	r1, [r0, #68]	@ 0x44
    1442:	b570      	push	{r4, r5, r6, lr}
    1444:	4605      	mov	r5, r0
    1446:	b181      	cbz	r1, 146a <_reclaim_reent+0x32>
    1448:	2600      	movs	r6, #0
    144a:	598c      	ldr	r4, [r1, r6]
    144c:	b13c      	cbz	r4, 145e <_reclaim_reent+0x26>
    144e:	4621      	mov	r1, r4
    1450:	6824      	ldr	r4, [r4, #0]
    1452:	4628      	mov	r0, r5
    1454:	f7ff fd0e 	bl	e74 <_free_r>
    1458:	2c00      	cmp	r4, #0
    145a:	d1f8      	bne.n	144e <_reclaim_reent+0x16>
    145c:	6c69      	ldr	r1, [r5, #68]	@ 0x44
    145e:	3604      	adds	r6, #4
    1460:	2e80      	cmp	r6, #128	@ 0x80
    1462:	d1f2      	bne.n	144a <_reclaim_reent+0x12>
    1464:	4628      	mov	r0, r5
    1466:	f7ff fd05 	bl	e74 <_free_r>
    146a:	6ba9      	ldr	r1, [r5, #56]	@ 0x38
    146c:	b111      	cbz	r1, 1474 <_reclaim_reent+0x3c>
    146e:	4628      	mov	r0, r5
    1470:	f7ff fd00 	bl	e74 <_free_r>
    1474:	6c2c      	ldr	r4, [r5, #64]	@ 0x40
    1476:	b134      	cbz	r4, 1486 <_reclaim_reent+0x4e>
    1478:	4621      	mov	r1, r4
    147a:	6824      	ldr	r4, [r4, #0]
    147c:	4628      	mov	r0, r5
    147e:	f7ff fcf9 	bl	e74 <_free_r>
    1482:	2c00      	cmp	r4, #0
    1484:	d1f8      	bne.n	1478 <_reclaim_reent+0x40>
    1486:	6ce9      	ldr	r1, [r5, #76]	@ 0x4c
    1488:	b111      	cbz	r1, 1490 <_reclaim_reent+0x58>
    148a:	4628      	mov	r0, r5
    148c:	f7ff fcf2 	bl	e74 <_free_r>
    1490:	6b6b      	ldr	r3, [r5, #52]	@ 0x34
    1492:	b11b      	cbz	r3, 149c <_reclaim_reent+0x64>
    1494:	4628      	mov	r0, r5
    1496:	e8bd 4070 	ldmia.w	sp!, {r4, r5, r6, lr}
    149a:	4718      	bx	r3
    149c:	bd70      	pop	{r4, r5, r6, pc}
    149e:	4770      	bx	lr
    14a0:	20000010 	andcs	r0, r0, r0, lsl r0

000014a4 <_close>:
    14a4:	4b02      	ldr	r3, [pc, #8]	@ (14b0 <_close+0xc>)
    14a6:	2258      	movs	r2, #88	@ 0x58
    14a8:	601a      	str	r2, [r3, #0]
    14aa:	f04f 30ff 	mov.w	r0, #4294967295	@ 0xffffffff
    14ae:	4770      	bx	lr
    14b0:	20000874 	andcs	r0, r0, r4, ror r8

000014b4 <_lseek>:
    14b4:	4b02      	ldr	r3, [pc, #8]	@ (14c0 <_lseek+0xc>)
    14b6:	2258      	movs	r2, #88	@ 0x58
    14b8:	601a      	str	r2, [r3, #0]
    14ba:	f04f 30ff 	mov.w	r0, #4294967295	@ 0xffffffff
    14be:	4770      	bx	lr
    14c0:	20000874 	andcs	r0, r0, r4, ror r8

000014c4 <_read>:
    14c4:	4b02      	ldr	r3, [pc, #8]	@ (14d0 <_read+0xc>)
    14c6:	2258      	movs	r2, #88	@ 0x58
    14c8:	601a      	str	r2, [r3, #0]
    14ca:	f04f 30ff 	mov.w	r0, #4294967295	@ 0xffffffff
    14ce:	4770      	bx	lr
    14d0:	20000874 	andcs	r0, r0, r4, ror r8

000014d4 <_sbrk>:
    14d4:	4a04      	ldr	r2, [pc, #16]	@ (14e8 <_sbrk+0x14>)
    14d6:	4905      	ldr	r1, [pc, #20]	@ (14ec <_sbrk+0x18>)
    14d8:	6813      	ldr	r3, [r2, #0]
    14da:	2b00      	cmp	r3, #0
    14dc:	bf08      	it	eq
    14de:	460b      	moveq	r3, r1
    14e0:	4418      	add	r0, r3
    14e2:	6010      	str	r0, [r2, #0]
    14e4:	4618      	mov	r0, r3
    14e6:	4770      	bx	lr
    14e8:	20000878 	andcs	r0, r0, r8, ror r8
    14ec:	2000087c 	andcs	r0, r0, ip, ror r8

000014f0 <_write>:
    14f0:	4b02      	ldr	r3, [pc, #8]	@ (14fc <_write+0xc>)
    14f2:	2258      	movs	r2, #88	@ 0x58
    14f4:	601a      	str	r2, [r3, #0]
    14f6:	f04f 30ff 	mov.w	r0, #4294967295	@ 0xffffffff
    14fa:	4770      	bx	lr
    14fc:	20000874 	andcs	r0, r0, r4, ror r8

00001500 <_exit>:
    1500:	e7fe      	b.n	1500 <_exit>
    1502:	bf00      	nop

00001504 <register_fini>:
    1504:	4b02      	ldr	r3, [pc, #8]	@ (1510 <register_fini+0xc>)
    1506:	b113      	cbz	r3, 150e <register_fini+0xa>
    1508:	4802      	ldr	r0, [pc, #8]	@ (1514 <register_fini+0x10>)
    150a:	f7fe bfd5 	b.w	4b8 <atexit>
    150e:	4770      	bx	lr
    1510:	00000000 	andeq	r0, r0, r0
    1514:	000004c5 	andeq	r0, r0, r5, asr #9

00001518 <__frame_dummy_init_array_entry>:
    1518:	000001a9 	andeq	r0, r0, r9, lsr #3
    151c:	00001505 	andeq	r1, r0, r5, lsl #10

00001520 <_init>:
    1520:	b5f8      	push	{r3, r4, r5, r6, r7, lr}
    1522:	bf00      	nop
    1524:	bcf8      	pop	{r3, r4, r5, r6, r7}
    1526:	bc08      	pop	{r3}
    1528:	469e      	mov	lr, r3
    152a:	4770      	bx	lr

0000152c <_fini>:
    152c:	b5f8      	push	{r3, r4, r5, r6, r7, lr}
    152e:	bf00      	nop

00001530 <__do_global_dtors_aux_fini_array_entry>:
    1530:	00000181 	andeq	r0, r0, r1, lsl #3
    1534:	bcf8      	pop	{r3, r4, r5, r6, r7}
    1536:	bc08      	pop	{r3}
    1538:	469e      	mov	lr, r3
    153a:	4770      	bx	lr

Disassembly of section .text:Reset_Handler:

0000153c <Reset_Handler>:
    153c:	4668      	mov	r0, sp
    153e:	f020 0107 	bic.w	r1, r0, #7
    1542:	468d      	mov	sp, r1
    1544:	b581      	push	{r0, r7, lr}
    1546:	b083      	sub	sp, #12
    1548:	af00      	add	r7, sp, #0
    154a:	4b12      	ldr	r3, [pc, #72]	@ (1594 <zero_loop+0x20>)
    154c:	607b      	str	r3, [r7, #4]
    154e:	4b12      	ldr	r3, [pc, #72]	@ (1598 <zero_loop+0x24>)
    1550:	603b      	str	r3, [r7, #0]
    1552:	e007      	b.n	1564 <Reset_Handler+0x28>
    1554:	687a      	ldr	r2, [r7, #4]
    1556:	1d13      	adds	r3, r2, #4
    1558:	607b      	str	r3, [r7, #4]
    155a:	683b      	ldr	r3, [r7, #0]
    155c:	1d19      	adds	r1, r3, #4
    155e:	6039      	str	r1, [r7, #0]
    1560:	6812      	ldr	r2, [r2, #0]
    1562:	601a      	str	r2, [r3, #0]
    1564:	683b      	ldr	r3, [r7, #0]
    1566:	4a0d      	ldr	r2, [pc, #52]	@ (159c <zero_loop+0x28>)
    1568:	4293      	cmp	r3, r2
    156a:	d3f3      	bcc.n	1554 <Reset_Handler+0x18>
    156c:	480c      	ldr	r0, [pc, #48]	@ (15a0 <zero_loop+0x2c>)
    156e:	490d      	ldr	r1, [pc, #52]	@ (15a4 <zero_loop+0x30>)
    1570:	f04f 0200 	mov.w	r2, #0

00001574 <zero_loop>:
    1574:	4288      	cmp	r0, r1
    1576:	bfb8      	it	lt
    1578:	f840 2b04 	strlt.w	r2, [r0], #4
    157c:	dbfa      	blt.n	1574 <zero_loop>
    157e:	f7fe ff0c 	bl	39a <SystemInit>
    1582:	f7fe fe59 	bl	238 <main>
    1586:	bf00      	nop
    1588:	370c      	adds	r7, #12
    158a:	46bd      	mov	sp, r7
    158c:	e8bd 4081 	ldmia.w	sp!, {r0, r7, lr}
    1590:	4685      	mov	sp, r0
    1592:	4770      	bx	lr
    1594:	0000162c 	andeq	r1, r0, ip, lsr #12
    1598:	20000000 	andcs	r0, r0, r0
    159c:	20000548 	andcs	r0, r0, r8, asr #10
    15a0:	20000548 	andcs	r0, r0, r8, asr #10
    15a4:	2000087c 	andcs	r0, r0, ip, ror r8

Disassembly of section .text:NMI_Handler:

000015a8 <NMI_Handler>:
    15a8:	4668      	mov	r0, sp
    15aa:	f020 0107 	bic.w	r1, r0, #7
    15ae:	468d      	mov	sp, r1
    15b0:	b481      	push	{r0, r7}
    15b2:	af00      	add	r7, sp, #0
    15b4:	bf00      	nop
    15b6:	e7fd      	b.n	15b4 <NMI_Handler+0xc>

Disassembly of section .text:HardFault_Handler:

000015b8 <HardFault_Handler>:
    15b8:	4668      	mov	r0, sp
    15ba:	f020 0107 	bic.w	r1, r0, #7
    15be:	468d      	mov	sp, r1
    15c0:	b481      	push	{r0, r7}
    15c2:	af00      	add	r7, sp, #0
    15c4:	bf00      	nop
    15c6:	e7fd      	b.n	15c4 <HardFault_Handler+0xc>

Disassembly of section .text:Default_Handler:

000015c8 <Default_Handler>:
    15c8:	4668      	mov	r0, sp
    15ca:	f020 0107 	bic.w	r1, r0, #7
    15ce:	468d      	mov	sp, r1
    15d0:	b481      	push	{r0, r7}
    15d2:	af00      	add	r7, sp, #0
    15d4:	bf00      	nop
    15d6:	e7fd      	b.n	15d4 <Default_Handler+0xc>
